	.text
	.const
__ZStL19piecewise_construct:
	.space 1
	.static_data
__ZStL8__ioinit:
	.space	1
	.const
__ZStL13allocator_arg:
	.space 1
__ZStL6ignore:
	.space 1
	.text
	.align 1,0x90
	.globl __ZNSt8__detail15_Hash_node_baseC1Ev
	.weak_definition __ZNSt8__detail15_Hash_node_baseC1Ev
__ZNSt8__detail15_Hash_node_baseC1Ev:
LFB2392:
	pushq	%rbp
LCFI0:
	movq	%rsp, %rbp
LCFI1:
	movq	%rdi, -8(%rbp)
	movq	-8(%rbp), %rax
	movq	$0, (%rax)
	nop
	popq	%rbp
LCFI2:
	ret
LFE2392:
	.align 1,0x90
	.globl __ZNKSt8__detail18_Mod_range_hashingclEmm
	.weak_definition __ZNKSt8__detail18_Mod_range_hashingclEmm
__ZNKSt8__detail18_Mod_range_hashingclEmm:
LFB2419:
	pushq	%rbp
LCFI3:
	movq	%rsp, %rbp
LCFI4:
	movq	%rdi, -8(%rbp)
	movq	%rsi, -16(%rbp)
	movq	%rdx, -24(%rbp)
	movq	-16(%rbp), %rax
	movl	$0, %edx
	divq	-24(%rbp)
	movq	%rdx, %rax
	popq	%rbp
LCFI5:
	ret
LFE2419:
	.align 1,0x90
	.globl __ZNSt8__detail20_Prime_rehash_policyC1Ef
	.weak_definition __ZNSt8__detail20_Prime_rehash_policyC1Ef
__ZNSt8__detail20_Prime_rehash_policyC1Ef:
LFB2422:
	pushq	%rbp
LCFI6:
	movq	%rsp, %rbp
LCFI7:
	movq	%rdi, -8(%rbp)
	movss	%xmm0, -12(%rbp)
	movq	-8(%rbp), %rax
	movss	-12(%rbp), %xmm0
	movss	%xmm0, (%rax)
	movq	-8(%rbp), %rax
	movq	$0, 8(%rax)
	nop
	popq	%rbp
LCFI8:
	ret
LFE2422:
	.align 1,0x90
	.globl __ZNKSt8__detail20_Prime_rehash_policy15max_load_factorEv
	.weak_definition __ZNKSt8__detail20_Prime_rehash_policy15max_load_factorEv
__ZNKSt8__detail20_Prime_rehash_policy15max_load_factorEv:
LFB2423:
	pushq	%rbp
LCFI9:
	movq	%rsp, %rbp
LCFI10:
	movq	%rdi, -8(%rbp)
	movq	-8(%rbp), %rax
	movss	(%rax), %xmm0
	popq	%rbp
LCFI11:
	ret
LFE2423:
	.align 1,0x90
	.globl __ZNKSt8__detail20_Prime_rehash_policy19_M_bkt_for_elementsEm
	.weak_definition __ZNKSt8__detail20_Prime_rehash_policy19_M_bkt_for_elementsEm
__ZNKSt8__detail20_Prime_rehash_policy19_M_bkt_for_elementsEm:
LFB2424:
	pushq	%rbp
LCFI12:
	movq	%rsp, %rbp
LCFI13:
	movq	%rdi, -8(%rbp)
	movq	%rsi, -16(%rbp)
	fildq	-16(%rbp)
	cmpq	$0, -16(%rbp)
	jns	L8
	fldt	lC0(%rip)
	faddp	%st, %st(1)
L8:
	movq	-8(%rbp), %rax
	movss	(%rax), %xmm5
	movss	%xmm5, -24(%rbp)
	flds	-24(%rbp)
	fdivrp	%st, %st(1)
	fstpl	-24(%rbp)
	movsd	-24(%rbp), %xmm4
	movsd	lC1(%rip), %xmm3
	movapd	%xmm4, %xmm0
	movq	lC2(%rip), %xmm1
	movapd	%xmm1, %xmm2
	movapd	%xmm0, %xmm1
	andpd	%xmm2, %xmm1
	ucomisd	%xmm1, %xmm3
	jbe	L9
	cvttsd2siq	%xmm0, %rax
	cvtsi2sdq	%rax, %xmm1
	movsd	lC3(%rip), %xmm3
	cmpnlesd	%xmm1, %xmm0
	andpd	%xmm3, %xmm0
	addsd	%xmm1, %xmm0
	andnpd	%xmm4, %xmm2
	movapd	%xmm2, %xmm1
	orpd	%xmm1, %xmm0
L9:
	comisd	lC4(%rip), %xmm0
	jnb	L10
	cvttsd2siq	%xmm0, %rax
	jmp	L11
L10:
	movsd	lC4(%rip), %xmm1
	subsd	%xmm1, %xmm0
	cvttsd2siq	%xmm0, %rax
	movabsq	$-9223372036854775808, %rdx
	xorq	%rdx, %rax
L11:
	popq	%rbp
LCFI14:
	ret
LFE2424:
	.align 1,0x90
	.globl __ZNKSt8__detail20_Prime_rehash_policy8_M_stateEv
	.weak_definition __ZNKSt8__detail20_Prime_rehash_policy8_M_stateEv
__ZNKSt8__detail20_Prime_rehash_policy8_M_stateEv:
LFB2425:
	pushq	%rbp
LCFI15:
	movq	%rsp, %rbp
LCFI16:
	movq	%rdi, -8(%rbp)
	movq	-8(%rbp), %rax
	movq	8(%rax), %rax
	popq	%rbp
LCFI17:
	ret
LFE2425:
	.align 1,0x90
	.globl __ZNSt8__detail20_Prime_rehash_policy8_M_resetEm
	.weak_definition __ZNSt8__detail20_Prime_rehash_policy8_M_resetEm
__ZNSt8__detail20_Prime_rehash_policy8_M_resetEm:
LFB2427:
	pushq	%rbp
LCFI18:
	movq	%rsp, %rbp
LCFI19:
	movq	%rdi, -8(%rbp)
	movq	%rsi, -16(%rbp)
	movq	-8(%rbp), %rax
	movq	-16(%rbp), %rdx
	movq	%rdx, 8(%rax)
	nop
	popq	%rbp
LCFI20:
	ret
LFE2427:
	.const
	.align 3
__ZL7epsilon:
	.long	0
	.long	1072693248
	.align 3
__ZL3r_m:
	.long	0
	.long	1072693248
	.text
	.align 1,0x90
	.globl __ZN10DimensionsC1Edddddd
	.weak_definition __ZN10DimensionsC1Edddddd
__ZN10DimensionsC1Edddddd:
LFB3133:
	pushq	%rbp
LCFI21:
	movq	%rsp, %rbp
LCFI22:
	movq	%rdi, -8(%rbp)
	movsd	%xmm0, -16(%rbp)
	movsd	%xmm1, -24(%rbp)
	movsd	%xmm2, -32(%rbp)
	movsd	%xmm3, -40(%rbp)
	movsd	%xmm4, -48(%rbp)
	movsd	%xmm5, -56(%rbp)
	movq	-8(%rbp), %rax
	movsd	-16(%rbp), %xmm0
	movsd	%xmm0, (%rax)
	movq	-8(%rbp), %rax
	movsd	-24(%rbp), %xmm0
	movsd	%xmm0, 8(%rax)
	movq	-8(%rbp), %rax
	movsd	-32(%rbp), %xmm0
	movsd	%xmm0, 16(%rax)
	movq	-8(%rbp), %rax
	movsd	-40(%rbp), %xmm0
	movsd	%xmm0, 24(%rax)
	movq	-8(%rbp), %rax
	movsd	-48(%rbp), %xmm0
	movsd	%xmm0, 32(%rax)
	movq	-8(%rbp), %rax
	movsd	-56(%rbp), %xmm0
	movsd	%xmm0, 40(%rax)
	nop
	popq	%rbp
LCFI23:
	ret
LFE3133:
	.align 1,0x90
	.globl __ZNSt12_Vector_baseI8PositionSaIS0_EE12_Vector_implD1Ev
	.weak_definition __ZNSt12_Vector_baseI8PositionSaIS0_EE12_Vector_implD1Ev
__ZNSt12_Vector_baseI8PositionSaIS0_EE12_Vector_implD1Ev:
LFB3143:
	pushq	%rbp
LCFI24:
	movq	%rsp, %rbp
LCFI25:
	subq	$16, %rsp
	movq	%rdi, -8(%rbp)
	movq	-8(%rbp), %rax
	movq	%rax, %rdi
	call	__ZNSaI8PositionED2Ev
	nop
	leave
LCFI26:
	ret
LFE3143:
	.align 1,0x90
	.globl __ZN21LennardJonesPotentialC1ERKdS1_
	.weak_definition __ZN21LennardJonesPotentialC1ERKdS1_
__ZN21LennardJonesPotentialC1ERKdS1_:
LFB3155:
	pushq	%rbp
LCFI27:
	movq	%rsp, %rbp
LCFI28:
	movq	%rdi, -8(%rbp)
	movq	%rsi, -16(%rbp)
	movq	%rdx, -24(%rbp)
	movq	-8(%rbp), %rax
	movq	-16(%rbp), %rdx
	movq	%rdx, (%rax)
	movq	-8(%rbp), %rax
	movq	-24(%rbp), %rdx
	movq	%rdx, 8(%rax)
	nop
	popq	%rbp
LCFI29:
	ret
LFE3155:
	.align 1,0x90
	.globl __ZNSt12_Vector_baseI7GasAtomSaIS0_EE12_Vector_implD1Ev
	.weak_definition __ZNSt12_Vector_baseI7GasAtomSaIS0_EE12_Vector_implD1Ev
__ZNSt12_Vector_baseI7GasAtomSaIS0_EE12_Vector_implD1Ev:
LFB3164:
	pushq	%rbp
LCFI30:
	movq	%rsp, %rbp
LCFI31:
	subq	$16, %rsp
	movq	%rdi, -8(%rbp)
	movq	-8(%rbp), %rax
	movq	%rax, %rdi
	call	__ZNSaI7GasAtomED2Ev
	nop
	leave
LCFI32:
	ret
LFE3164:
	.align 1,0x90
	.globl __ZNSt12_Vector_baseI7GasAtomSaIS0_EEC2Ev
	.weak_definition __ZNSt12_Vector_baseI7GasAtomSaIS0_EEC2Ev
__ZNSt12_Vector_baseI7GasAtomSaIS0_EEC2Ev:
LFB3165:
	pushq	%rbp
LCFI33:
	movq	%rsp, %rbp
LCFI34:
	subq	$16, %rsp
	movq	%rdi, -8(%rbp)
	movq	-8(%rbp), %rax
	movq	%rax, %rdi
	call	__ZNSt12_Vector_baseI7GasAtomSaIS0_EE12_Vector_implC1Ev
	nop
	leave
LCFI35:
	ret
LFE3165:
	.align 1,0x90
	.globl __ZNSt6vectorI7GasAtomSaIS0_EEC1Ev
	.weak_definition __ZNSt6vectorI7GasAtomSaIS0_EEC1Ev
__ZNSt6vectorI7GasAtomSaIS0_EEC1Ev:
LFB3168:
	pushq	%rbp
LCFI36:
	movq	%rsp, %rbp
LCFI37:
	subq	$16, %rsp
	movq	%rdi, -8(%rbp)
	movq	-8(%rbp), %rax
	movq	%rax, %rdi
	call	__ZNSt12_Vector_baseI7GasAtomSaIS0_EEC2Ev
	nop
	leave
LCFI38:
	ret
LFE3168:
	.align 1,0x90
	.globl __ZNSt8__detail21_Hashtable_ebo_helperILi0ESaINS_10_Hash_nodeISt4pairIKS2_IiiEdELb1EEEELb1EEC2Ev
	.weak_definition __ZNSt8__detail21_Hashtable_ebo_helperILi0ESaINS_10_Hash_nodeISt4pairIKS2_IiiEdELb1EEEELb1EEC2Ev
__ZNSt8__detail21_Hashtable_ebo_helperILi0ESaINS_10_Hash_nodeISt4pairIKS2_IiiEdELb1EEEELb1EEC2Ev:
LFB3173:
	pushq	%rbp
LCFI39:
	movq	%rsp, %rbp
LCFI40:
	subq	$16, %rsp
	movq	%rdi, -8(%rbp)
	movq	-8(%rbp), %rax
	movq	%rax, %rdi
	call	__ZNSaINSt8__detail10_Hash_nodeISt4pairIKS1_IiiEdELb1EEEEC2Ev
	nop
	leave
LCFI41:
	ret
LFE3173:
	.align 1,0x90
	.globl __ZNSt8__detail21_Hashtable_ebo_helperILi0ESaINS_10_Hash_nodeISt4pairIKS2_IiiEdELb1EEEELb1EED2Ev
	.weak_definition __ZNSt8__detail21_Hashtable_ebo_helperILi0ESaINS_10_Hash_nodeISt4pairIKS2_IiiEdELb1EEEELb1EED2Ev
__ZNSt8__detail21_Hashtable_ebo_helperILi0ESaINS_10_Hash_nodeISt4pairIKS2_IiiEdELb1EEEELb1EED2Ev:
LFB3176:
	pushq	%rbp
LCFI42:
	movq	%rsp, %rbp
LCFI43:
	subq	$16, %rsp
	movq	%rdi, -8(%rbp)
	movq	-8(%rbp), %rax
	movq	%rax, %rdi
	call	__ZNSaINSt8__detail10_Hash_nodeISt4pairIKS1_IiiEdELb1EEEED2Ev
	nop
	leave
LCFI44:
	ret
LFE3176:
	.align 1,0x90
	.globl __ZNSt8__detail16_Hashtable_allocISaINS_10_Hash_nodeISt4pairIKS2_IiiEdELb1EEEEEC2Ev
	.weak_definition __ZNSt8__detail16_Hashtable_allocISaINS_10_Hash_nodeISt4pairIKS2_IiiEdELb1EEEEEC2Ev
__ZNSt8__detail16_Hashtable_allocISaINS_10_Hash_nodeISt4pairIKS2_IiiEdELb1EEEEEC2Ev:
LFB3178:
	pushq	%rbp
LCFI45:
	movq	%rsp, %rbp
LCFI46:
	subq	$16, %rsp
	movq	%rdi, -8(%rbp)
	movq	-8(%rbp), %rax
	movq	%rax, %rdi
	call	__ZNSt8__detail21_Hashtable_ebo_helperILi0ESaINS_10_Hash_nodeISt4pairIKS2_IiiEdELb1EEEELb1EEC2Ev
	nop
	leave
LCFI47:
	ret
LFE3178:
	.align 1,0x90
	.globl __ZNSt8__detail16_Hashtable_allocISaINS_10_Hash_nodeISt4pairIKS2_IiiEdELb1EEEEED2Ev
	.weak_definition __ZNSt8__detail16_Hashtable_allocISaINS_10_Hash_nodeISt4pairIKS2_IiiEdELb1EEEEED2Ev
__ZNSt8__detail16_Hashtable_allocISaINS_10_Hash_nodeISt4pairIKS2_IiiEdELb1EEEEED2Ev:
LFB3181:
	pushq	%rbp
LCFI48:
	movq	%rsp, %rbp
LCFI49:
	subq	$16, %rsp
	movq	%rdi, -8(%rbp)
	movq	-8(%rbp), %rax
	movq	%rax, %rdi
	call	__ZNSt8__detail21_Hashtable_ebo_helperILi0ESaINS_10_Hash_nodeISt4pairIKS2_IiiEdELb1EEEELb1EED2Ev
	nop
	leave
LCFI50:
	ret
LFE3181:
	.align 1,0x90
	.globl __ZNSt10_HashtableISt4pairIiiES0_IKS1_dESaIS3_ENSt8__detail10_Select1stESt8equal_toIS1_ESt4hashIS1_ENS5_18_Mod_range_hashingENS5_20_Default_ranged_hashENS5_20_Prime_rehash_policyENS5_17_Hashtable_traitsILb1ELb0ELb1EEEEC1Ev
	.weak_definition __ZNSt10_HashtableISt4pairIiiES0_IKS1_dESaIS3_ENSt8__detail10_Select1stESt8equal_toIS1_ESt4hashIS1_ENS5_18_Mod_range_hashingENS5_20_Default_ranged_hashENS5_20_Prime_rehash_policyENS5_17_Hashtable_traitsILb1ELb0ELb1EEEEC1Ev
__ZNSt10_HashtableISt4pairIiiES0_IKS1_dESaIS3_ENSt8__detail10_Select1stESt8equal_toIS1_ESt4hashIS1_ENS5_18_Mod_range_hashingENS5_20_Default_ranged_hashENS5_20_Prime_rehash_policyENS5_17_Hashtable_traitsILb1ELb0ELb1EEEEC1Ev:
LFB3184:
	pushq	%rbp
LCFI51:
	movq	%rsp, %rbp
LCFI52:
	subq	$16, %rsp
	movq	%rdi, -8(%rbp)
	movq	-8(%rbp), %rax
	movq	%rax, %rdi
	call	__ZNSt8__detail16_Hashtable_allocISaINS_10_Hash_nodeISt4pairIKS2_IiiEdELb1EEEEEC2Ev
	movq	-8(%rbp), %rax
	leaq	48(%rax), %rdx
	movq	-8(%rbp), %rax
	movq	%rdx, (%rax)
	movq	-8(%rbp), %rax
	movq	$1, 8(%rax)
	movq	-8(%rbp), %rax
	addq	$16, %rax
	movq	%rax, %rdi
	call	__ZNSt8__detail15_Hash_node_baseC1Ev
	movq	-8(%rbp), %rax
	movq	$0, 24(%rax)
	movq	-8(%rbp), %rax
	addq	$32, %rax
	movss	lC6(%rip), %xmm0
	movq	%rax, %rdi
	call	__ZNSt8__detail20_Prime_rehash_policyC1Ef
	movq	-8(%rbp), %rax
	movq	$0, 48(%rax)
	nop
	leave
LCFI53:
	ret
LFE3184:
	.align 1,0x90
	.globl __ZNSt13unordered_mapISt4pairIiiEdSt4hashIS1_ESt8equal_toIS1_ESaIS0_IKS1_dEEEC1Ev
	.weak_definition __ZNSt13unordered_mapISt4pairIiiEdSt4hashIS1_ESt8equal_toIS1_ESaIS0_IKS1_dEEEC1Ev
__ZNSt13unordered_mapISt4pairIiiEdSt4hashIS1_ESt8equal_toIS1_ESaIS0_IKS1_dEEEC1Ev:
LFB3186:
	pushq	%rbp
LCFI54:
	movq	%rsp, %rbp
LCFI55:
	subq	$16, %rsp
	movq	%rdi, -8(%rbp)
	movq	-8(%rbp), %rax
	movq	%rax, %rdi
	call	__ZNSt10_HashtableISt4pairIiiES0_IKS1_dESaIS3_ENSt8__detail10_Select1stESt8equal_toIS1_ESt4hashIS1_ENS5_18_Mod_range_hashingENS5_20_Default_ranged_hashENS5_20_Prime_rehash_policyENS5_17_Hashtable_traitsILb1ELb0ELb1EEEEC1Ev
	nop
	leave
LCFI56:
	ret
LFE3186:
	.align 1,0x90
	.globl __ZNSt13unordered_mapISt4pairIiiEdSt4hashIS1_ESt8equal_toIS1_ESaIS0_IKS1_dEEED1Ev
	.weak_definition __ZNSt13unordered_mapISt4pairIiiEdSt4hashIS1_ESt8equal_toIS1_ESaIS0_IKS1_dEEED1Ev
__ZNSt13unordered_mapISt4pairIiiEdSt4hashIS1_ESt8equal_toIS1_ESaIS0_IKS1_dEEED1Ev:
LFB3189:
	pushq	%rbp
LCFI57:
	movq	%rsp, %rbp
LCFI58:
	subq	$16, %rsp
	movq	%rdi, -8(%rbp)
	movq	-8(%rbp), %rax
	movq	%rax, %rdi
	call	__ZNSt10_HashtableISt4pairIiiES0_IKS1_dESaIS3_ENSt8__detail10_Select1stESt8equal_toIS1_ESt4hashIS1_ENS5_18_Mod_range_hashingENS5_20_Default_ranged_hashENS5_20_Prime_rehash_policyENS5_17_Hashtable_traitsILb1ELb0ELb1EEEED1Ev
	nop
	leave
LCFI59:
	ret
LFE3189:
	.align 1,0x90
	.globl __ZN6GasBoxC1Eiidddddd
	.weak_definition __ZN6GasBoxC1Eiidddddd
__ZN6GasBoxC1Eiidddddd:
LFB3191:
	pushq	%rbp
LCFI60:
	movq	%rsp, %rbp
LCFI61:
	pushq	%rbx
	subq	$72, %rsp
LCFI62:
	movq	%rdi, -24(%rbp)
	movl	%esi, -28(%rbp)
	movl	%edx, -32(%rbp)
	movsd	%xmm0, -40(%rbp)
	movsd	%xmm1, -48(%rbp)
	movsd	%xmm2, -56(%rbp)
	movsd	%xmm3, -64(%rbp)
	movsd	%xmm4, -72(%rbp)
	movsd	%xmm5, -80(%rbp)
	movq	-24(%rbp), %rdx
	movsd	-80(%rbp), %xmm4
	movsd	-72(%rbp), %xmm3
	movsd	-64(%rbp), %xmm2
	movsd	-56(%rbp), %xmm1
	movsd	-48(%rbp), %xmm0
	movq	-40(%rbp), %rax
	movapd	%xmm4, %xmm5
	movapd	%xmm3, %xmm4
	movapd	%xmm2, %xmm3
	movapd	%xmm1, %xmm2
	movapd	%xmm0, %xmm1
	movq	%rax, %xmm0
	movq	%rdx, %rdi
	call	__ZN10DimensionsC1Edddddd
	movq	-24(%rbp), %rax
	movl	-28(%rbp), %edx
	movl	%edx, 48(%rax)
	movq	-24(%rbp), %rax
	movl	-32(%rbp), %edx
	movl	%edx, 52(%rax)
	movq	-24(%rbp), %rax
	addq	$56, %rax
	movq	%rax, %rdi
	call	__ZNSt6vectorI7GasAtomSaIS0_EEC1Ev
	movq	-24(%rbp), %rax
	addq	$80, %rax
	movq	%rax, %rdi
	call	__ZNSt13unordered_mapISt4pairIiiEdSt4hashIS1_ESt8equal_toIS1_ESaIS0_IKS1_dEEEC1Ev
	movq	-24(%rbp), %rax
	addq	$136, %rax
	leaq	__ZL7epsilon(%rip), %rdx
	leaq	__ZL3r_m(%rip), %rsi
	movq	%rax, %rdi
	call	__ZN21LennardJonesPotentialC1ERKdS1_
	movl	-32(%rbp), %eax
	movl	%eax, %edi
	call	_srand
	movq	-24(%rbp), %rax
	leaq	80(%rax), %rdx
	movl	-28(%rbp), %eax
	subl	$1, %eax
	imull	-28(%rbp), %eax
	movl	%eax, %ecx
	shrl	$31, %ecx
	addl	%ecx, %eax
	sarl	%eax
	cltq
	movq	%rax, %rsi
	movq	%rdx, %rdi
LEHB0:
	call	__ZNSt13unordered_mapISt4pairIiiEdSt4hashIS1_ESt8equal_toIS1_ESaIS0_IKS1_dEEE7reserveEm
LEHE0:
	jmp	L32
L31:
	movq	%rax, %rbx
	movq	-24(%rbp), %rax
	addq	$80, %rax
	movq	%rax, %rdi
	call	__ZNSt13unordered_mapISt4pairIiiEdSt4hashIS1_ESt8equal_toIS1_ESaIS0_IKS1_dEEED1Ev
	movq	-24(%rbp), %rax
	addq	$56, %rax
	movq	%rax, %rdi
	call	__ZNSt6vectorI7GasAtomSaIS0_EED1Ev
	movq	%rbx, %rax
	movq	%rax, %rdi
LEHB1:
	call	__Unwind_Resume
LEHE1:
L32:
	addq	$72, %rsp
	popq	%rbx
	popq	%rbp
LCFI63:
	ret
LFE3191:
	.section __DATA,__gcc_except_tab
GCC_except_table0:
LLSDA3191:
	.byte	0xff
	.byte	0xff
	.byte	0x3
	.byte	0x1a
	.set L$set$0,LEHB0-LFB3191
	.long L$set$0
	.set L$set$1,LEHE0-LEHB0
	.long L$set$1
	.set L$set$2,L31-LFB3191
	.long L$set$2
	.byte	0
	.set L$set$3,LEHB1-LFB3191
	.long L$set$3
	.set L$set$4,LEHE1-LEHB1
	.long L$set$4
	.long	0
	.byte	0
	.text
	.align 1,0x90
	.globl __ZN6GasBoxD1Ev
	.weak_definition __ZN6GasBoxD1Ev
__ZN6GasBoxD1Ev:
LFB3195:
	pushq	%rbp
LCFI64:
	movq	%rsp, %rbp
LCFI65:
	subq	$16, %rsp
	movq	%rdi, -8(%rbp)
	movq	-8(%rbp), %rax
	addq	$80, %rax
	movq	%rax, %rdi
	call	__ZNSt13unordered_mapISt4pairIiiEdSt4hashIS1_ESt8equal_toIS1_ESaIS0_IKS1_dEEED1Ev
	movq	-8(%rbp), %rax
	addq	$56, %rax
	movq	%rax, %rdi
	call	__ZNSt6vectorI7GasAtomSaIS0_EED1Ev
	nop
	leave
LCFI66:
	ret
LFE3195:
	.globl _main
_main:
LFB3192:
	pushq	%rbp
LCFI67:
	movq	%rsp, %rbp
LCFI68:
	pushq	%rbx
	subq	$168, %rsp
LCFI69:
	movsd	lC7(%rip), %xmm2
	movsd	lC7(%rip), %xmm1
	movsd	lC7(%rip), %xmm0
	leaq	-176(%rbp), %rax
	movapd	%xmm2, %xmm5
	pxor	%xmm4, %xmm4
	movapd	%xmm1, %xmm3
	pxor	%xmm2, %xmm2
	movapd	%xmm0, %xmm1
	pxor	%xmm0, %xmm0
	movl	$10, %edx
	movl	$1000, %esi
	movq	%rax, %rdi
LEHB2:
	call	__ZN6GasBoxC1Eiidddddd
LEHE2:
	leaq	-176(%rbp), %rax
	movq	%rax, %rdi
LEHB3:
	call	__ZN6GasBox10initializeEv
LEHE3:
	leaq	-176(%rbp), %rax
	movq	%rax, %rdi
	call	__ZN6GasBoxD1Ev
	movl	$0, %eax
	jmp	L38
L37:
	movq	%rax, %rbx
	leaq	-176(%rbp), %rax
	movq	%rax, %rdi
	call	__ZN6GasBoxD1Ev
	movq	%rbx, %rax
	movq	%rax, %rdi
LEHB4:
	call	__Unwind_Resume
LEHE4:
L38:
	addq	$168, %rsp
	popq	%rbx
	popq	%rbp
LCFI70:
	ret
LFE3192:
	.section __DATA,__gcc_except_tab
GCC_except_table1:
LLSDA3192:
	.byte	0xff
	.byte	0xff
	.byte	0x3
	.byte	0x27
	.set L$set$5,LEHB2-LFB3192
	.long L$set$5
	.set L$set$6,LEHE2-LEHB2
	.long L$set$6
	.long	0
	.byte	0
	.set L$set$7,LEHB3-LFB3192
	.long L$set$7
	.set L$set$8,LEHE3-LEHB3
	.long L$set$8
	.set L$set$9,L37-LFB3192
	.long L$set$9
	.byte	0
	.set L$set$10,LEHB4-LFB3192
	.long L$set$10
	.set L$set$11,LEHE4-LEHB4
	.long L$set$11
	.long	0
	.byte	0
	.text
	.globl __ZSt3maxImERKT_S2_S2_
	.weak_definition __ZSt3maxImERKT_S2_S2_
__ZSt3maxImERKT_S2_S2_:
LFB3444:
	pushq	%rbp
LCFI71:
	movq	%rsp, %rbp
LCFI72:
	movq	%rdi, -8(%rbp)
	movq	%rsi, -16(%rbp)
	movq	-8(%rbp), %rax
	movq	(%rax), %rdx
	movq	-16(%rbp), %rax
	movq	(%rax), %rax
	cmpq	%rax, %rdx
	jnb	L40
	movq	-16(%rbp), %rax
	jmp	L41
L40:
	movq	-8(%rbp), %rax
L41:
	popq	%rbp
LCFI73:
	ret
LFE3444:
	.align 1,0x90
	.globl __ZNSaI8PositionED2Ev
	.weak_definition __ZNSaI8PositionED2Ev
__ZNSaI8PositionED2Ev:
LFB3475:
	pushq	%rbp
LCFI74:
	movq	%rsp, %rbp
LCFI75:
	subq	$16, %rsp
	movq	%rdi, -8(%rbp)
	movq	-8(%rbp), %rax
	movq	%rax, %rdi
	call	__ZN9__gnu_cxx13new_allocatorI8PositionED2Ev
	nop
	leave
LCFI76:
	ret
LFE3475:
	.align 1,0x90
	.globl __ZNSt12_Vector_baseI8PositionSaIS0_EED2Ev
	.weak_definition __ZNSt12_Vector_baseI8PositionSaIS0_EED2Ev
__ZNSt12_Vector_baseI8PositionSaIS0_EED2Ev:
LFB3478:
	pushq	%rbp
LCFI77:
	movq	%rsp, %rbp
LCFI78:
	subq	$16, %rsp
	movq	%rdi, -8(%rbp)
	movq	-8(%rbp), %rax
	movq	16(%rax), %rdx
	movq	-8(%rbp), %rax
	movq	(%rax), %rax
	subq	%rax, %rdx
	movq	%rdx, %rax
	sarq	$3, %rax
	movq	%rax, %rdx
	movabsq	$-6148914691236517205, %rax
	imulq	%rdx, %rax
	movq	%rax, %rdx
	movq	-8(%rbp), %rax
	movq	(%rax), %rcx
	movq	-8(%rbp), %rax
	movq	%rcx, %rsi
	movq	%rax, %rdi
	call	__ZNSt12_Vector_baseI8PositionSaIS0_EE13_M_deallocateEPS0_m
	movq	-8(%rbp), %rax
	movq	%rax, %rdi
	call	__ZNSt12_Vector_baseI8PositionSaIS0_EE12_Vector_implD1Ev
	nop
	leave
LCFI79:
	ret
LFE3478:
	.section __DATA,__gcc_except_tab
GCC_except_table2:
LLSDA3478:
	.byte	0xff
	.byte	0xff
	.byte	0x3
	.byte	0
	.text
	.align 1,0x90
	.globl __ZNSt6vectorI8PositionSaIS0_EED1Ev
	.weak_definition __ZNSt6vectorI8PositionSaIS0_EED1Ev
__ZNSt6vectorI8PositionSaIS0_EED1Ev:
LFB3482:
	pushq	%rbp
LCFI80:
	movq	%rsp, %rbp
LCFI81:
	subq	$16, %rsp
	movq	%rdi, -8(%rbp)
	movq	-8(%rbp), %rax
	movq	%rax, %rdi
	call	__ZNSt12_Vector_baseI8PositionSaIS0_EE19_M_get_Tp_allocatorEv
	movq	%rax, %rdx
	movq	-8(%rbp), %rax
	movq	8(%rax), %rcx
	movq	-8(%rbp), %rax
	movq	(%rax), %rax
	movq	%rcx, %rsi
	movq	%rax, %rdi
	call	__ZSt8_DestroyIP8PositionS0_EvT_S2_RSaIT0_E
	movq	-8(%rbp), %rax
	movq	%rax, %rdi
	call	__ZNSt12_Vector_baseI8PositionSaIS0_EED2Ev
	nop
	leave
LCFI82:
	ret
LFE3482:
	.section __DATA,__gcc_except_tab
GCC_except_table3:
LLSDA3482:
	.byte	0xff
	.byte	0xff
	.byte	0x3
	.byte	0
	.text
	.align 1,0x90
	.globl __ZNSt12_Vector_baseI7GasAtomSaIS0_EE12_Vector_implC1Ev
	.weak_definition __ZNSt12_Vector_baseI7GasAtomSaIS0_EE12_Vector_implC1Ev
__ZNSt12_Vector_baseI7GasAtomSaIS0_EE12_Vector_implC1Ev:
LFB3489:
	pushq	%rbp
LCFI83:
	movq	%rsp, %rbp
LCFI84:
	subq	$16, %rsp
	movq	%rdi, -8(%rbp)
	movq	-8(%rbp), %rax
	movq	%rax, %rdi
	call	__ZNSaI7GasAtomEC2Ev
	movq	-8(%rbp), %rax
	movq	%rax, %rdi
	call	__ZNSt12_Vector_baseI7GasAtomSaIS0_EE17_Vector_impl_dataC2Ev
	nop
	leave
LCFI85:
	ret
LFE3489:
	.align 1,0x90
	.globl __ZNSaI7GasAtomED2Ev
	.weak_definition __ZNSaI7GasAtomED2Ev
__ZNSaI7GasAtomED2Ev:
LFB3491:
	pushq	%rbp
LCFI86:
	movq	%rsp, %rbp
LCFI87:
	subq	$16, %rsp
	movq	%rdi, -8(%rbp)
	movq	-8(%rbp), %rax
	movq	%rax, %rdi
	call	__ZN9__gnu_cxx13new_allocatorI7GasAtomED2Ev
	nop
	leave
LCFI88:
	ret
LFE3491:
	.align 1,0x90
	.globl __ZNSt12_Vector_baseI7GasAtomSaIS0_EED2Ev
	.weak_definition __ZNSt12_Vector_baseI7GasAtomSaIS0_EED2Ev
__ZNSt12_Vector_baseI7GasAtomSaIS0_EED2Ev:
LFB3494:
	pushq	%rbp
LCFI89:
	movq	%rsp, %rbp
LCFI90:
	subq	$16, %rsp
	movq	%rdi, -8(%rbp)
	movq	-8(%rbp), %rax
	movq	16(%rax), %rdx
	movq	-8(%rbp), %rax
	movq	(%rax), %rax
	subq	%rax, %rdx
	movq	%rdx, %rax
	sarq	$6, %rax
	movq	%rax, %rdx
	movq	-8(%rbp), %rax
	movq	(%rax), %rcx
	movq	-8(%rbp), %rax
	movq	%rcx, %rsi
	movq	%rax, %rdi
	call	__ZNSt12_Vector_baseI7GasAtomSaIS0_EE13_M_deallocateEPS0_m
	movq	-8(%rbp), %rax
	movq	%rax, %rdi
	call	__ZNSt12_Vector_baseI7GasAtomSaIS0_EE12_Vector_implD1Ev
	nop
	leave
LCFI91:
	ret
LFE3494:
	.section __DATA,__gcc_except_tab
GCC_except_table4:
LLSDA3494:
	.byte	0xff
	.byte	0xff
	.byte	0x3
	.byte	0
	.text
	.align 1,0x90
	.globl __ZNSt6vectorI7GasAtomSaIS0_EED1Ev
	.weak_definition __ZNSt6vectorI7GasAtomSaIS0_EED1Ev
__ZNSt6vectorI7GasAtomSaIS0_EED1Ev:
LFB3498:
	pushq	%rbp
LCFI92:
	movq	%rsp, %rbp
LCFI93:
	subq	$16, %rsp
	movq	%rdi, -8(%rbp)
	movq	-8(%rbp), %rax
	movq	%rax, %rdi
	call	__ZNSt12_Vector_baseI7GasAtomSaIS0_EE19_M_get_Tp_allocatorEv
	movq	%rax, %rdx
	movq	-8(%rbp), %rax
	movq	8(%rax), %rcx
	movq	-8(%rbp), %rax
	movq	(%rax), %rax
	movq	%rcx, %rsi
	movq	%rax, %rdi
	call	__ZSt8_DestroyIP7GasAtomS0_EvT_S2_RSaIT0_E
	movq	-8(%rbp), %rax
	movq	%rax, %rdi
	call	__ZNSt12_Vector_baseI7GasAtomSaIS0_EED2Ev
	nop
	leave
LCFI94:
	ret
LFE3498:
	.section __DATA,__gcc_except_tab
GCC_except_table5:
LLSDA3498:
	.byte	0xff
	.byte	0xff
	.byte	0x3
	.byte	0
	.text
	.align 1,0x90
	.globl __ZNSaINSt8__detail10_Hash_nodeISt4pairIKS1_IiiEdELb1EEEEC2Ev
	.weak_definition __ZNSaINSt8__detail10_Hash_nodeISt4pairIKS1_IiiEdELb1EEEEC2Ev
__ZNSaINSt8__detail10_Hash_nodeISt4pairIKS1_IiiEdELb1EEEEC2Ev:
LFB3500:
	pushq	%rbp
LCFI95:
	movq	%rsp, %rbp
LCFI96:
	subq	$16, %rsp
	movq	%rdi, -8(%rbp)
	movq	-8(%rbp), %rax
	movq	%rax, %rdi
	call	__ZN9__gnu_cxx13new_allocatorINSt8__detail10_Hash_nodeISt4pairIKS3_IiiEdELb1EEEEC2Ev
	nop
	leave
LCFI97:
	ret
LFE3500:
	.align 1,0x90
	.globl __ZNSaINSt8__detail10_Hash_nodeISt4pairIKS1_IiiEdELb1EEEED2Ev
	.weak_definition __ZNSaINSt8__detail10_Hash_nodeISt4pairIKS1_IiiEdELb1EEEED2Ev
__ZNSaINSt8__detail10_Hash_nodeISt4pairIKS1_IiiEdELb1EEEED2Ev:
LFB3503:
	pushq	%rbp
LCFI98:
	movq	%rsp, %rbp
LCFI99:
	subq	$16, %rsp
	movq	%rdi, -8(%rbp)
	movq	-8(%rbp), %rax
	movq	%rax, %rdi
	call	__ZN9__gnu_cxx13new_allocatorINSt8__detail10_Hash_nodeISt4pairIKS3_IiiEdELb1EEEED2Ev
	nop
	leave
LCFI100:
	ret
LFE3503:
	.align 1,0x90
	.globl __ZNSt10_HashtableISt4pairIiiES0_IKS1_dESaIS3_ENSt8__detail10_Select1stESt8equal_toIS1_ESt4hashIS1_ENS5_18_Mod_range_hashingENS5_20_Default_ranged_hashENS5_20_Prime_rehash_policyENS5_17_Hashtable_traitsILb1ELb0ELb1EEEED1Ev
	.weak_definition __ZNSt10_HashtableISt4pairIiiES0_IKS1_dESaIS3_ENSt8__detail10_Select1stESt8equal_toIS1_ESt4hashIS1_ENS5_18_Mod_range_hashingENS5_20_Default_ranged_hashENS5_20_Prime_rehash_policyENS5_17_Hashtable_traitsILb1ELb0ELb1EEEED1Ev
__ZNSt10_HashtableISt4pairIiiES0_IKS1_dESaIS3_ENSt8__detail10_Select1stESt8equal_toIS1_ESt4hashIS1_ENS5_18_Mod_range_hashingENS5_20_Default_ranged_hashENS5_20_Prime_rehash_policyENS5_17_Hashtable_traitsILb1ELb0ELb1EEEED1Ev:
LFB3507:
	pushq	%rbp
LCFI101:
	movq	%rsp, %rbp
LCFI102:
	subq	$16, %rsp
	movq	%rdi, -8(%rbp)
	movq	-8(%rbp), %rax
	movq	%rax, %rdi
	call	__ZNSt10_HashtableISt4pairIiiES0_IKS1_dESaIS3_ENSt8__detail10_Select1stESt8equal_toIS1_ESt4hashIS1_ENS5_18_Mod_range_hashingENS5_20_Default_ranged_hashENS5_20_Prime_rehash_policyENS5_17_Hashtable_traitsILb1ELb0ELb1EEEE5clearEv
	movq	-8(%rbp), %rax
	movq	%rax, %rdi
	call	__ZNSt10_HashtableISt4pairIiiES0_IKS1_dESaIS3_ENSt8__detail10_Select1stESt8equal_toIS1_ESt4hashIS1_ENS5_18_Mod_range_hashingENS5_20_Default_ranged_hashENS5_20_Prime_rehash_policyENS5_17_Hashtable_traitsILb1ELb0ELb1EEEE21_M_deallocate_bucketsEv
	movq	-8(%rbp), %rax
	movq	%rax, %rdi
	call	__ZNSt8__detail16_Hashtable_allocISaINS_10_Hash_nodeISt4pairIKS2_IiiEdELb1EEEEED2Ev
	nop
	leave
LCFI103:
	ret
LFE3507:
	.section __DATA,__gcc_except_tab
GCC_except_table6:
LLSDA3507:
	.byte	0xff
	.byte	0xff
	.byte	0x3
	.byte	0
	.text
	.align 1,0x90
	.globl __ZNSt13unordered_mapISt4pairIiiEdSt4hashIS1_ESt8equal_toIS1_ESaIS0_IKS1_dEEE7reserveEm
	.weak_definition __ZNSt13unordered_mapISt4pairIiiEdSt4hashIS1_ESt8equal_toIS1_ESaIS0_IKS1_dEEE7reserveEm
__ZNSt13unordered_mapISt4pairIiiEdSt4hashIS1_ESt8equal_toIS1_ESaIS0_IKS1_dEEE7reserveEm:
LFB3508:
	pushq	%rbp
LCFI104:
	movq	%rsp, %rbp
LCFI105:
	subq	$16, %rsp
	movq	%rdi, -8(%rbp)
	movq	%rsi, -16(%rbp)
	movq	-8(%rbp), %rax
	movq	-16(%rbp), %rdx
	movq	%rdx, %rsi
	movq	%rax, %rdi
	call	__ZNSt8__detail12_Rehash_baseISt4pairIiiES1_IKS2_dESaIS4_ENS_10_Select1stESt8equal_toIS2_ESt4hashIS2_ENS_18_Mod_range_hashingENS_20_Default_ranged_hashENS_20_Prime_rehash_policyENS_17_Hashtable_traitsILb1ELb0ELb1EEESt17integral_constantIbLb1EEE7reserveEm
	nop
	leave
LCFI106:
	ret
LFE3508:
	.align 1,0x90
	.globl __ZN9__gnu_cxx13new_allocatorI8PositionED2Ev
	.weak_definition __ZN9__gnu_cxx13new_allocatorI8PositionED2Ev
__ZN9__gnu_cxx13new_allocatorI8PositionED2Ev:
LFB3644:
	pushq	%rbp
LCFI107:
	movq	%rsp, %rbp
LCFI108:
	movq	%rdi, -8(%rbp)
	nop
	popq	%rbp
LCFI109:
	ret
LFE3644:
	.align 1,0x90
	.globl __ZNSt12_Vector_baseI8PositionSaIS0_EE13_M_deallocateEPS0_m
	.weak_definition __ZNSt12_Vector_baseI8PositionSaIS0_EE13_M_deallocateEPS0_m
__ZNSt12_Vector_baseI8PositionSaIS0_EE13_M_deallocateEPS0_m:
LFB3646:
	pushq	%rbp
LCFI110:
	movq	%rsp, %rbp
LCFI111:
	subq	$32, %rsp
	movq	%rdi, -8(%rbp)
	movq	%rsi, -16(%rbp)
	movq	%rdx, -24(%rbp)
	cmpq	$0, -16(%rbp)
	je	L56
	movq	-8(%rbp), %rax
	movq	-24(%rbp), %rdx
	movq	-16(%rbp), %rcx
	movq	%rcx, %rsi
	movq	%rax, %rdi
	call	__ZNSt16allocator_traitsISaI8PositionEE10deallocateERS1_PS0_m
L56:
	nop
	leave
LCFI112:
	ret
LFE3646:
	.align 1,0x90
	.globl __ZNSt12_Vector_baseI8PositionSaIS0_EE19_M_get_Tp_allocatorEv
	.weak_definition __ZNSt12_Vector_baseI8PositionSaIS0_EE19_M_get_Tp_allocatorEv
__ZNSt12_Vector_baseI8PositionSaIS0_EE19_M_get_Tp_allocatorEv:
LFB3647:
	pushq	%rbp
LCFI113:
	movq	%rsp, %rbp
LCFI114:
	movq	%rdi, -8(%rbp)
	movq	-8(%rbp), %rax
	popq	%rbp
LCFI115:
	ret
LFE3647:
	.globl __ZSt8_DestroyIP8PositionS0_EvT_S2_RSaIT0_E
	.weak_definition __ZSt8_DestroyIP8PositionS0_EvT_S2_RSaIT0_E
__ZSt8_DestroyIP8PositionS0_EvT_S2_RSaIT0_E:
LFB3648:
	pushq	%rbp
LCFI116:
	movq	%rsp, %rbp
LCFI117:
	subq	$32, %rsp
	movq	%rdi, -8(%rbp)
	movq	%rsi, -16(%rbp)
	movq	%rdx, -24(%rbp)
	movq	-16(%rbp), %rdx
	movq	-8(%rbp), %rax
	movq	%rdx, %rsi
	movq	%rax, %rdi
	call	__ZSt8_DestroyIP8PositionEvT_S2_
	nop
	leave
LCFI118:
	ret
LFE3648:
	.align 1,0x90
	.globl __ZNSaI7GasAtomEC2Ev
	.weak_definition __ZNSaI7GasAtomEC2Ev
__ZNSaI7GasAtomEC2Ev:
LFB3656:
	pushq	%rbp
LCFI119:
	movq	%rsp, %rbp
LCFI120:
	subq	$16, %rsp
	movq	%rdi, -8(%rbp)
	movq	-8(%rbp), %rax
	movq	%rax, %rdi
	call	__ZN9__gnu_cxx13new_allocatorI7GasAtomEC2Ev
	nop
	leave
LCFI121:
	ret
LFE3656:
	.align 1,0x90
	.globl __ZNSt12_Vector_baseI7GasAtomSaIS0_EE17_Vector_impl_dataC2Ev
	.weak_definition __ZNSt12_Vector_baseI7GasAtomSaIS0_EE17_Vector_impl_dataC2Ev
__ZNSt12_Vector_baseI7GasAtomSaIS0_EE17_Vector_impl_dataC2Ev:
LFB3659:
	pushq	%rbp
LCFI122:
	movq	%rsp, %rbp
LCFI123:
	movq	%rdi, -8(%rbp)
	movq	-8(%rbp), %rax
	movq	$0, (%rax)
	movq	-8(%rbp), %rax
	movq	$0, 8(%rax)
	movq	-8(%rbp), %rax
	movq	$0, 16(%rax)
	nop
	popq	%rbp
LCFI124:
	ret
LFE3659:
	.align 1,0x90
	.globl __ZN9__gnu_cxx13new_allocatorI7GasAtomED2Ev
	.weak_definition __ZN9__gnu_cxx13new_allocatorI7GasAtomED2Ev
__ZN9__gnu_cxx13new_allocatorI7GasAtomED2Ev:
LFB3662:
	pushq	%rbp
LCFI125:
	movq	%rsp, %rbp
LCFI126:
	movq	%rdi, -8(%rbp)
	nop
	popq	%rbp
LCFI127:
	ret
LFE3662:
	.align 1,0x90
	.globl __ZNSt12_Vector_baseI7GasAtomSaIS0_EE13_M_deallocateEPS0_m
	.weak_definition __ZNSt12_Vector_baseI7GasAtomSaIS0_EE13_M_deallocateEPS0_m
__ZNSt12_Vector_baseI7GasAtomSaIS0_EE13_M_deallocateEPS0_m:
LFB3664:
	pushq	%rbp
LCFI128:
	movq	%rsp, %rbp
LCFI129:
	subq	$32, %rsp
	movq	%rdi, -8(%rbp)
	movq	%rsi, -16(%rbp)
	movq	%rdx, -24(%rbp)
	cmpq	$0, -16(%rbp)
	je	L65
	movq	-8(%rbp), %rax
	movq	-24(%rbp), %rdx
	movq	-16(%rbp), %rcx
	movq	%rcx, %rsi
	movq	%rax, %rdi
	call	__ZNSt16allocator_traitsISaI7GasAtomEE10deallocateERS1_PS0_m
L65:
	nop
	leave
LCFI130:
	ret
LFE3664:
	.align 1,0x90
	.globl __ZNSt12_Vector_baseI7GasAtomSaIS0_EE19_M_get_Tp_allocatorEv
	.weak_definition __ZNSt12_Vector_baseI7GasAtomSaIS0_EE19_M_get_Tp_allocatorEv
__ZNSt12_Vector_baseI7GasAtomSaIS0_EE19_M_get_Tp_allocatorEv:
LFB3665:
	pushq	%rbp
LCFI131:
	movq	%rsp, %rbp
LCFI132:
	movq	%rdi, -8(%rbp)
	movq	-8(%rbp), %rax
	popq	%rbp
LCFI133:
	ret
LFE3665:
	.globl __ZSt8_DestroyIP7GasAtomS0_EvT_S2_RSaIT0_E
	.weak_definition __ZSt8_DestroyIP7GasAtomS0_EvT_S2_RSaIT0_E
__ZSt8_DestroyIP7GasAtomS0_EvT_S2_RSaIT0_E:
LFB3666:
	pushq	%rbp
LCFI134:
	movq	%rsp, %rbp
LCFI135:
	subq	$32, %rsp
	movq	%rdi, -8(%rbp)
	movq	%rsi, -16(%rbp)
	movq	%rdx, -24(%rbp)
	movq	-16(%rbp), %rdx
	movq	-8(%rbp), %rax
	movq	%rdx, %rsi
	movq	%rax, %rdi
	call	__ZSt8_DestroyIP7GasAtomEvT_S2_
	nop
	leave
LCFI136:
	ret
LFE3666:
	.align 1,0x90
	.globl __ZN9__gnu_cxx13new_allocatorINSt8__detail10_Hash_nodeISt4pairIKS3_IiiEdELb1EEEEC2Ev
	.weak_definition __ZN9__gnu_cxx13new_allocatorINSt8__detail10_Hash_nodeISt4pairIKS3_IiiEdELb1EEEEC2Ev
__ZN9__gnu_cxx13new_allocatorINSt8__detail10_Hash_nodeISt4pairIKS3_IiiEdELb1EEEEC2Ev:
LFB3668:
	pushq	%rbp
LCFI137:
	movq	%rsp, %rbp
LCFI138:
	movq	%rdi, -8(%rbp)
	nop
	popq	%rbp
LCFI139:
	ret
LFE3668:
	.align 1,0x90
	.globl __ZN9__gnu_cxx13new_allocatorINSt8__detail10_Hash_nodeISt4pairIKS3_IiiEdELb1EEEED2Ev
	.weak_definition __ZN9__gnu_cxx13new_allocatorINSt8__detail10_Hash_nodeISt4pairIKS3_IiiEdELb1EEEED2Ev
__ZN9__gnu_cxx13new_allocatorINSt8__detail10_Hash_nodeISt4pairIKS3_IiiEdELb1EEEED2Ev:
LFB3671:
	pushq	%rbp
LCFI140:
	movq	%rsp, %rbp
LCFI141:
	movq	%rdi, -8(%rbp)
	nop
	popq	%rbp
LCFI142:
	ret
LFE3671:
	.align 1,0x90
	.globl __ZNSt10_HashtableISt4pairIiiES0_IKS1_dESaIS3_ENSt8__detail10_Select1stESt8equal_toIS1_ESt4hashIS1_ENS5_18_Mod_range_hashingENS5_20_Default_ranged_hashENS5_20_Prime_rehash_policyENS5_17_Hashtable_traitsILb1ELb0ELb1EEEE5clearEv
	.weak_definition __ZNSt10_HashtableISt4pairIiiES0_IKS1_dESaIS3_ENSt8__detail10_Select1stESt8equal_toIS1_ESt4hashIS1_ENS5_18_Mod_range_hashingENS5_20_Default_ranged_hashENS5_20_Prime_rehash_policyENS5_17_Hashtable_traitsILb1ELb0ELb1EEEE5clearEv
__ZNSt10_HashtableISt4pairIiiES0_IKS1_dESaIS3_ENSt8__detail10_Select1stESt8equal_toIS1_ESt4hashIS1_ENS5_18_Mod_range_hashingENS5_20_Default_ranged_hashENS5_20_Prime_rehash_policyENS5_17_Hashtable_traitsILb1ELb0ELb1EEEE5clearEv:
LFB3673:
	pushq	%rbp
LCFI143:
	movq	%rsp, %rbp
LCFI144:
	subq	$16, %rsp
	movq	%rdi, -8(%rbp)
	movq	-8(%rbp), %rax
	movq	%rax, %rdi
	call	__ZNKSt10_HashtableISt4pairIiiES0_IKS1_dESaIS3_ENSt8__detail10_Select1stESt8equal_toIS1_ESt4hashIS1_ENS5_18_Mod_range_hashingENS5_20_Default_ranged_hashENS5_20_Prime_rehash_policyENS5_17_Hashtable_traitsILb1ELb0ELb1EEEE8_M_beginEv
	movq	%rax, %rdx
	movq	-8(%rbp), %rax
	movq	%rdx, %rsi
	movq	%rax, %rdi
	call	__ZNSt8__detail16_Hashtable_allocISaINS_10_Hash_nodeISt4pairIKS2_IiiEdELb1EEEEE19_M_deallocate_nodesEPS6_
	movq	-8(%rbp), %rax
	movq	8(%rax), %rax
	leaq	0(,%rax,8), %rdx
	movq	-8(%rbp), %rax
	movq	(%rax), %rax
	movl	$0, %esi
	movq	%rax, %rdi
	call	_memset
	movq	-8(%rbp), %rax
	movq	$0, 24(%rax)
	movq	-8(%rbp), %rax
	movq	$0, 16(%rax)
	nop
	leave
LCFI145:
	ret
LFE3673:
	.section __DATA,__gcc_except_tab
GCC_except_table7:
LLSDA3673:
	.byte	0xff
	.byte	0xff
	.byte	0x3
	.byte	0
	.text
	.align 1,0x90
	.globl __ZNSt10_HashtableISt4pairIiiES0_IKS1_dESaIS3_ENSt8__detail10_Select1stESt8equal_toIS1_ESt4hashIS1_ENS5_18_Mod_range_hashingENS5_20_Default_ranged_hashENS5_20_Prime_rehash_policyENS5_17_Hashtable_traitsILb1ELb0ELb1EEEE21_M_deallocate_bucketsEv
	.weak_definition __ZNSt10_HashtableISt4pairIiiES0_IKS1_dESaIS3_ENSt8__detail10_Select1stESt8equal_toIS1_ESt4hashIS1_ENS5_18_Mod_range_hashingENS5_20_Default_ranged_hashENS5_20_Prime_rehash_policyENS5_17_Hashtable_traitsILb1ELb0ELb1EEEE21_M_deallocate_bucketsEv
__ZNSt10_HashtableISt4pairIiiES0_IKS1_dESaIS3_ENSt8__detail10_Select1stESt8equal_toIS1_ESt4hashIS1_ENS5_18_Mod_range_hashingENS5_20_Default_ranged_hashENS5_20_Prime_rehash_policyENS5_17_Hashtable_traitsILb1ELb0ELb1EEEE21_M_deallocate_bucketsEv:
LFB3674:
	pushq	%rbp
LCFI146:
	movq	%rsp, %rbp
LCFI147:
	subq	$16, %rsp
	movq	%rdi, -8(%rbp)
	movq	-8(%rbp), %rax
	movq	8(%rax), %rdx
	movq	-8(%rbp), %rax
	movq	(%rax), %rcx
	movq	-8(%rbp), %rax
	movq	%rcx, %rsi
	movq	%rax, %rdi
	call	__ZNSt10_HashtableISt4pairIiiES0_IKS1_dESaIS3_ENSt8__detail10_Select1stESt8equal_toIS1_ESt4hashIS1_ENS5_18_Mod_range_hashingENS5_20_Default_ranged_hashENS5_20_Prime_rehash_policyENS5_17_Hashtable_traitsILb1ELb0ELb1EEEE21_M_deallocate_bucketsEPPNS5_15_Hash_node_baseEm
	nop
	leave
LCFI148:
	ret
LFE3674:
	.align 1,0x90
	.globl __ZNSt8__detail12_Rehash_baseISt4pairIiiES1_IKS2_dESaIS4_ENS_10_Select1stESt8equal_toIS2_ESt4hashIS2_ENS_18_Mod_range_hashingENS_20_Default_ranged_hashENS_20_Prime_rehash_policyENS_17_Hashtable_traitsILb1ELb0ELb1EEESt17integral_constantIbLb1EEE7reserveEm
	.weak_definition __ZNSt8__detail12_Rehash_baseISt4pairIiiES1_IKS2_dESaIS4_ENS_10_Select1stESt8equal_toIS2_ESt4hashIS2_ENS_18_Mod_range_hashingENS_20_Default_ranged_hashENS_20_Prime_rehash_policyENS_17_Hashtable_traitsILb1ELb0ELb1EEESt17integral_constantIbLb1EEE7reserveEm
__ZNSt8__detail12_Rehash_baseISt4pairIiiES1_IKS2_dESaIS4_ENS_10_Select1stESt8equal_toIS2_ESt4hashIS2_ENS_18_Mod_range_hashingENS_20_Default_ranged_hashENS_20_Prime_rehash_policyENS_17_Hashtable_traitsILb1ELb0ELb1EEESt17integral_constantIbLb1EEE7reserveEm:
LFB3675:
	pushq	%rbp
LCFI149:
	movq	%rsp, %rbp
LCFI150:
	subq	$48, %rsp
	movq	%rdi, -24(%rbp)
	movq	%rsi, -32(%rbp)
	movq	-24(%rbp), %rax
	movq	%rax, -8(%rbp)
	movq	-32(%rbp), %rax
	testq	%rax, %rax
	js	L74
	cvtsi2ssq	%rax, %xmm6
	movss	%xmm6, -36(%rbp)
	jmp	L75
L74:
	movq	%rax, %rdx
	shrq	%rdx
	andl	$1, %eax
	orq	%rax, %rdx
	cvtsi2ssq	%rdx, %xmm0
	addss	%xmm0, %xmm0
	movss	%xmm0, -36(%rbp)
L75:
	movq	-24(%rbp), %rax
	movq	%rax, %rdi
	call	__ZNKSt8__detail12_Rehash_baseISt4pairIiiES1_IKS2_dESaIS4_ENS_10_Select1stESt8equal_toIS2_ESt4hashIS2_ENS_18_Mod_range_hashingENS_20_Default_ranged_hashENS_20_Prime_rehash_policyENS_17_Hashtable_traitsILb1ELb0ELb1EEESt17integral_constantIbLb1EEE15max_load_factorEv
	movss	-36(%rbp), %xmm5
	divss	%xmm0, %xmm5
	movaps	%xmm5, %xmm0
	cvtss2sd	%xmm0, %xmm2
	movsd	lC1(%rip), %xmm4
	movapd	%xmm2, %xmm0
	movq	lC2(%rip), %xmm1
	movapd	%xmm1, %xmm3
	movapd	%xmm0, %xmm1
	andpd	%xmm3, %xmm1
	ucomisd	%xmm1, %xmm4
	jbe	L76
	cvttsd2siq	%xmm0, %rax
	cvtsi2sdq	%rax, %xmm1
	movsd	lC3(%rip), %xmm4
	cmpnlesd	%xmm1, %xmm0
	andpd	%xmm4, %xmm0
	addsd	%xmm1, %xmm0
	andnpd	%xmm2, %xmm3
	movapd	%xmm3, %xmm1
	orpd	%xmm1, %xmm0
L76:
	comisd	lC4(%rip), %xmm0
	jnb	L77
	cvttsd2siq	%xmm0, %rax
	jmp	L78
L77:
	movsd	lC4(%rip), %xmm1
	subsd	%xmm1, %xmm0
	cvttsd2siq	%xmm0, %rax
	movabsq	$-9223372036854775808, %rdx
	xorq	%rdx, %rax
L78:
	movq	-8(%rbp), %rdx
	movq	%rax, %rsi
	movq	%rdx, %rdi
	call	__ZNSt10_HashtableISt4pairIiiES0_IKS1_dESaIS3_ENSt8__detail10_Select1stESt8equal_toIS1_ESt4hashIS1_ENS5_18_Mod_range_hashingENS5_20_Default_ranged_hashENS5_20_Prime_rehash_policyENS5_17_Hashtable_traitsILb1ELb0ELb1EEEE6rehashEm
	nop
	leave
LCFI151:
	ret
LFE3675:
	.align 1,0x90
	.globl __ZNKSt10_HashtableISt4pairIiiES0_IKS1_dESaIS3_ENSt8__detail10_Select1stESt8equal_toIS1_ESt4hashIS1_ENS5_18_Mod_range_hashingENS5_20_Default_ranged_hashENS5_20_Prime_rehash_policyENS5_17_Hashtable_traitsILb1ELb0ELb1EEEE8_M_beginEv
	.weak_definition __ZNKSt10_HashtableISt4pairIiiES0_IKS1_dESaIS3_ENSt8__detail10_Select1stESt8equal_toIS1_ESt4hashIS1_ENS5_18_Mod_range_hashingENS5_20_Default_ranged_hashENS5_20_Prime_rehash_policyENS5_17_Hashtable_traitsILb1ELb0ELb1EEEE8_M_beginEv
__ZNKSt10_HashtableISt4pairIiiES0_IKS1_dESaIS3_ENSt8__detail10_Select1stESt8equal_toIS1_ESt4hashIS1_ENS5_18_Mod_range_hashingENS5_20_Default_ranged_hashENS5_20_Prime_rehash_policyENS5_17_Hashtable_traitsILb1ELb0ELb1EEEE8_M_beginEv:
LFB3689:
	pushq	%rbp
LCFI152:
	movq	%rsp, %rbp
LCFI153:
	movq	%rdi, -8(%rbp)
	movq	-8(%rbp), %rax
	movq	16(%rax), %rax
	popq	%rbp
LCFI154:
	ret
LFE3689:
	.globl __ZNSt16allocator_traitsISaI8PositionEE10deallocateERS1_PS0_m
	.weak_definition __ZNSt16allocator_traitsISaI8PositionEE10deallocateERS1_PS0_m
__ZNSt16allocator_traitsISaI8PositionEE10deallocateERS1_PS0_m:
LFB3729:
	pushq	%rbp
LCFI155:
	movq	%rsp, %rbp
LCFI156:
	subq	$32, %rsp
	movq	%rdi, -8(%rbp)
	movq	%rsi, -16(%rbp)
	movq	%rdx, -24(%rbp)
	movq	-24(%rbp), %rdx
	movq	-16(%rbp), %rcx
	movq	-8(%rbp), %rax
	movq	%rcx, %rsi
	movq	%rax, %rdi
	call	__ZN9__gnu_cxx13new_allocatorI8PositionE10deallocateEPS1_m
	nop
	leave
LCFI157:
	ret
LFE3729:
	.globl __ZSt8_DestroyIP8PositionEvT_S2_
	.weak_definition __ZSt8_DestroyIP8PositionEvT_S2_
__ZSt8_DestroyIP8PositionEvT_S2_:
LFB3730:
	pushq	%rbp
LCFI158:
	movq	%rsp, %rbp
LCFI159:
	subq	$16, %rsp
	movq	%rdi, -8(%rbp)
	movq	%rsi, -16(%rbp)
	movq	-16(%rbp), %rdx
	movq	-8(%rbp), %rax
	movq	%rdx, %rsi
	movq	%rax, %rdi
	call	__ZNSt12_Destroy_auxILb1EE9__destroyIP8PositionEEvT_S4_
	nop
	leave
LCFI160:
	ret
LFE3730:
	.align 1,0x90
	.globl __ZN9__gnu_cxx13new_allocatorI7GasAtomEC2Ev
	.weak_definition __ZN9__gnu_cxx13new_allocatorI7GasAtomEC2Ev
__ZN9__gnu_cxx13new_allocatorI7GasAtomEC2Ev:
LFB3746:
	pushq	%rbp
LCFI161:
	movq	%rsp, %rbp
LCFI162:
	movq	%rdi, -8(%rbp)
	nop
	popq	%rbp
LCFI163:
	ret
LFE3746:
	.globl __ZNSt16allocator_traitsISaI7GasAtomEE10deallocateERS1_PS0_m
	.weak_definition __ZNSt16allocator_traitsISaI7GasAtomEE10deallocateERS1_PS0_m
__ZNSt16allocator_traitsISaI7GasAtomEE10deallocateERS1_PS0_m:
LFB3748:
	pushq	%rbp
LCFI164:
	movq	%rsp, %rbp
LCFI165:
	subq	$32, %rsp
	movq	%rdi, -8(%rbp)
	movq	%rsi, -16(%rbp)
	movq	%rdx, -24(%rbp)
	movq	-24(%rbp), %rdx
	movq	-16(%rbp), %rcx
	movq	-8(%rbp), %rax
	movq	%rcx, %rsi
	movq	%rax, %rdi
	call	__ZN9__gnu_cxx13new_allocatorI7GasAtomE10deallocateEPS1_m
	nop
	leave
LCFI166:
	ret
LFE3748:
	.globl __ZSt8_DestroyIP7GasAtomEvT_S2_
	.weak_definition __ZSt8_DestroyIP7GasAtomEvT_S2_
__ZSt8_DestroyIP7GasAtomEvT_S2_:
LFB3749:
	pushq	%rbp
LCFI167:
	movq	%rsp, %rbp
LCFI168:
	subq	$16, %rsp
	movq	%rdi, -8(%rbp)
	movq	%rsi, -16(%rbp)
	movq	-16(%rbp), %rdx
	movq	-8(%rbp), %rax
	movq	%rdx, %rsi
	movq	%rax, %rdi
	call	__ZNSt12_Destroy_auxILb0EE9__destroyIP7GasAtomEEvT_S4_
	nop
	leave
LCFI169:
	ret
LFE3749:
	.align 1,0x90
	.globl __ZNSt8__detail16_Hashtable_allocISaINS_10_Hash_nodeISt4pairIKS2_IiiEdELb1EEEEE19_M_deallocate_nodesEPS6_
	.weak_definition __ZNSt8__detail16_Hashtable_allocISaINS_10_Hash_nodeISt4pairIKS2_IiiEdELb1EEEEE19_M_deallocate_nodesEPS6_
__ZNSt8__detail16_Hashtable_allocISaINS_10_Hash_nodeISt4pairIKS2_IiiEdELb1EEEEE19_M_deallocate_nodesEPS6_:
LFB3750:
	pushq	%rbp
LCFI170:
	movq	%rsp, %rbp
LCFI171:
	subq	$32, %rsp
	movq	%rdi, -24(%rbp)
	movq	%rsi, -32(%rbp)
L88:
	cmpq	$0, -32(%rbp)
	je	L89
	movq	-32(%rbp), %rax
	movq	%rax, -8(%rbp)
	movq	-32(%rbp), %rax
	movq	%rax, %rdi
	call	__ZNKSt8__detail10_Hash_nodeISt4pairIKS1_IiiEdELb1EE7_M_nextEv
	movq	%rax, -32(%rbp)
	movq	-8(%rbp), %rdx
	movq	-24(%rbp), %rax
	movq	%rdx, %rsi
	movq	%rax, %rdi
	call	__ZNSt8__detail16_Hashtable_allocISaINS_10_Hash_nodeISt4pairIKS2_IiiEdELb1EEEEE18_M_deallocate_nodeEPS6_
	jmp	L88
L89:
	nop
	leave
LCFI172:
	ret
LFE3750:
	.align 1,0x90
	.globl __ZNSt10_HashtableISt4pairIiiES0_IKS1_dESaIS3_ENSt8__detail10_Select1stESt8equal_toIS1_ESt4hashIS1_ENS5_18_Mod_range_hashingENS5_20_Default_ranged_hashENS5_20_Prime_rehash_policyENS5_17_Hashtable_traitsILb1ELb0ELb1EEEE21_M_deallocate_bucketsEPPNS5_15_Hash_node_baseEm
	.weak_definition __ZNSt10_HashtableISt4pairIiiES0_IKS1_dESaIS3_ENSt8__detail10_Select1stESt8equal_toIS1_ESt4hashIS1_ENS5_18_Mod_range_hashingENS5_20_Default_ranged_hashENS5_20_Prime_rehash_policyENS5_17_Hashtable_traitsILb1ELb0ELb1EEEE21_M_deallocate_bucketsEPPNS5_15_Hash_node_baseEm
__ZNSt10_HashtableISt4pairIiiES0_IKS1_dESaIS3_ENSt8__detail10_Select1stESt8equal_toIS1_ESt4hashIS1_ENS5_18_Mod_range_hashingENS5_20_Default_ranged_hashENS5_20_Prime_rehash_policyENS5_17_Hashtable_traitsILb1ELb0ELb1EEEE21_M_deallocate_bucketsEPPNS5_15_Hash_node_baseEm:
LFB3751:
	pushq	%rbp
LCFI173:
	movq	%rsp, %rbp
LCFI174:
	subq	$32, %rsp
	movq	%rdi, -8(%rbp)
	movq	%rsi, -16(%rbp)
	movq	%rdx, -24(%rbp)
	movq	-16(%rbp), %rdx
	movq	-8(%rbp), %rax
	movq	%rdx, %rsi
	movq	%rax, %rdi
	call	__ZNKSt10_HashtableISt4pairIiiES0_IKS1_dESaIS3_ENSt8__detail10_Select1stESt8equal_toIS1_ESt4hashIS1_ENS5_18_Mod_range_hashingENS5_20_Default_ranged_hashENS5_20_Prime_rehash_policyENS5_17_Hashtable_traitsILb1ELb0ELb1EEEE21_M_uses_single_bucketEPPNS5_15_Hash_node_baseE
	testb	%al, %al
	jne	L93
	movq	-24(%rbp), %rdx
	movq	-16(%rbp), %rcx
	movq	-8(%rbp), %rax
	movq	%rcx, %rsi
	movq	%rax, %rdi
	call	__ZNSt8__detail16_Hashtable_allocISaINS_10_Hash_nodeISt4pairIKS2_IiiEdELb1EEEEE21_M_deallocate_bucketsEPPNS_15_Hash_node_baseEm
	jmp	L90
L93:
	nop
L90:
	leave
LCFI175:
	ret
LFE3751:
	.align 1,0x90
	.globl __ZNKSt8__detail12_Rehash_baseISt4pairIiiES1_IKS2_dESaIS4_ENS_10_Select1stESt8equal_toIS2_ESt4hashIS2_ENS_18_Mod_range_hashingENS_20_Default_ranged_hashENS_20_Prime_rehash_policyENS_17_Hashtable_traitsILb1ELb0ELb1EEESt17integral_constantIbLb1EEE15max_load_factorEv
	.weak_definition __ZNKSt8__detail12_Rehash_baseISt4pairIiiES1_IKS2_dESaIS4_ENS_10_Select1stESt8equal_toIS2_ESt4hashIS2_ENS_18_Mod_range_hashingENS_20_Default_ranged_hashENS_20_Prime_rehash_policyENS_17_Hashtable_traitsILb1ELb0ELb1EEESt17integral_constantIbLb1EEE15max_load_factorEv
__ZNKSt8__detail12_Rehash_baseISt4pairIiiES1_IKS2_dESaIS4_ENS_10_Select1stESt8equal_toIS2_ESt4hashIS2_ENS_18_Mod_range_hashingENS_20_Default_ranged_hashENS_20_Prime_rehash_policyENS_17_Hashtable_traitsILb1ELb0ELb1EEESt17integral_constantIbLb1EEE15max_load_factorEv:
LFB3752:
	pushq	%rbp
LCFI176:
	movq	%rsp, %rbp
LCFI177:
	subq	$32, %rsp
	movq	%rdi, -24(%rbp)
	movq	-24(%rbp), %rax
	movq	%rax, -8(%rbp)
	movq	-8(%rbp), %rax
	movq	%rax, %rdi
	call	__ZNKSt10_HashtableISt4pairIiiES0_IKS1_dESaIS3_ENSt8__detail10_Select1stESt8equal_toIS1_ESt4hashIS1_ENS5_18_Mod_range_hashingENS5_20_Default_ranged_hashENS5_20_Prime_rehash_policyENS5_17_Hashtable_traitsILb1ELb0ELb1EEEE15__rehash_policyEv
	movq	%rax, %rdi
	call	__ZNKSt8__detail20_Prime_rehash_policy15max_load_factorEv
	leave
LCFI178:
	ret
LFE3752:
	.align 1,0x90
	.globl __ZNSt10_HashtableISt4pairIiiES0_IKS1_dESaIS3_ENSt8__detail10_Select1stESt8equal_toIS1_ESt4hashIS1_ENS5_18_Mod_range_hashingENS5_20_Default_ranged_hashENS5_20_Prime_rehash_policyENS5_17_Hashtable_traitsILb1ELb0ELb1EEEE6rehashEm
	.weak_definition __ZNSt10_HashtableISt4pairIiiES0_IKS1_dESaIS3_ENSt8__detail10_Select1stESt8equal_toIS1_ESt4hashIS1_ENS5_18_Mod_range_hashingENS5_20_Default_ranged_hashENS5_20_Prime_rehash_policyENS5_17_Hashtable_traitsILb1ELb0ELb1EEEE6rehashEm
__ZNSt10_HashtableISt4pairIiiES0_IKS1_dESaIS3_ENSt8__detail10_Select1stESt8equal_toIS1_ESt4hashIS1_ENS5_18_Mod_range_hashingENS5_20_Default_ranged_hashENS5_20_Prime_rehash_policyENS5_17_Hashtable_traitsILb1ELb0ELb1EEEE6rehashEm:
LFB3753:
	pushq	%rbp
LCFI179:
	movq	%rsp, %rbp
LCFI180:
	subq	$48, %rsp
	movq	%rdi, -40(%rbp)
	movq	%rsi, -48(%rbp)
	movq	-40(%rbp), %rax
	addq	$32, %rax
	movq	%rax, %rdi
	call	__ZNKSt8__detail20_Prime_rehash_policy8_M_stateEv
	movq	%rax, -32(%rbp)
	leaq	-32(%rbp), %rax
	movq	%rax, -8(%rbp)
	movq	-40(%rbp), %rax
	addq	$32, %rax
	movq	-40(%rbp), %rdx
	movq	24(%rdx), %rdx
	addq	$1, %rdx
	movq	%rdx, %rsi
	movq	%rax, %rdi
	call	__ZNKSt8__detail20_Prime_rehash_policy19_M_bkt_for_elementsEm
	movq	%rax, -24(%rbp)
	leaq	-48(%rbp), %rdx
	leaq	-24(%rbp), %rax
	movq	%rdx, %rsi
	movq	%rax, %rdi
	call	__ZSt3maxImERKT_S2_S2_
	movq	(%rax), %rax
	movq	%rax, -16(%rbp)
	movq	-40(%rbp), %rax
	addq	$32, %rax
	movq	-16(%rbp), %rdx
	movq	%rdx, %rsi
	movq	%rax, %rdi
	call	__ZNKSt8__detail20_Prime_rehash_policy11_M_next_bktEm
	movq	%rax, -16(%rbp)
	movq	-40(%rbp), %rax
	movq	8(%rax), %rax
	cmpq	%rax, -16(%rbp)
	je	L97
	movq	-8(%rbp), %rdx
	movq	-16(%rbp), %rcx
	movq	-40(%rbp), %rax
	movq	%rcx, %rsi
	movq	%rax, %rdi
	call	__ZNSt10_HashtableISt4pairIiiES0_IKS1_dESaIS3_ENSt8__detail10_Select1stESt8equal_toIS1_ESt4hashIS1_ENS5_18_Mod_range_hashingENS5_20_Default_ranged_hashENS5_20_Prime_rehash_policyENS5_17_Hashtable_traitsILb1ELb0ELb1EEEE9_M_rehashEmRKm
	jmp	L99
L97:
	movq	-40(%rbp), %rax
	addq	$32, %rax
	movq	-8(%rbp), %rdx
	movq	(%rdx), %rdx
	movq	%rdx, %rsi
	movq	%rax, %rdi
	call	__ZNSt8__detail20_Prime_rehash_policy8_M_resetEm
L99:
	nop
	leave
LCFI181:
	ret
LFE3753:
	.align 1,0x90
	.globl __ZNKSt10_HashtableISt4pairIiiES0_IKS1_dESaIS3_ENSt8__detail10_Select1stESt8equal_toIS1_ESt4hashIS1_ENS5_18_Mod_range_hashingENS5_20_Default_ranged_hashENS5_20_Prime_rehash_policyENS5_17_Hashtable_traitsILb1ELb0ELb1EEEE21_M_uses_single_bucketEPPNS5_15_Hash_node_baseE
	.weak_definition __ZNKSt10_HashtableISt4pairIiiES0_IKS1_dESaIS3_ENSt8__detail10_Select1stESt8equal_toIS1_ESt4hashIS1_ENS5_18_Mod_range_hashingENS5_20_Default_ranged_hashENS5_20_Prime_rehash_policyENS5_17_Hashtable_traitsILb1ELb0ELb1EEEE21_M_uses_single_bucketEPPNS5_15_Hash_node_baseE
__ZNKSt10_HashtableISt4pairIiiES0_IKS1_dESaIS3_ENSt8__detail10_Select1stESt8equal_toIS1_ESt4hashIS1_ENS5_18_Mod_range_hashingENS5_20_Default_ranged_hashENS5_20_Prime_rehash_policyENS5_17_Hashtable_traitsILb1ELb0ELb1EEEE21_M_uses_single_bucketEPPNS5_15_Hash_node_baseE:
LFB3760:
	pushq	%rbp
LCFI182:
	movq	%rsp, %rbp
LCFI183:
	movq	%rdi, -8(%rbp)
	movq	%rsi, -16(%rbp)
	movq	-8(%rbp), %rax
	addq	$48, %rax
	cmpq	%rax, -16(%rbp)
	sete	%al
	movzbl	%al, %eax
	testq	%rax, %rax
	setne	%al
	popq	%rbp
LCFI184:
	ret
LFE3760:
	.align 1,0x90
	.globl __ZNKSt8__detail15_Hash_code_baseISt4pairIiiES1_IKS2_dENS_10_Select1stESt4hashIS2_ENS_18_Mod_range_hashingENS_20_Default_ranged_hashELb1EE15_M_bucket_indexEPKNS_10_Hash_nodeIS4_Lb1EEEm
	.weak_definition __ZNKSt8__detail15_Hash_code_baseISt4pairIiiES1_IKS2_dENS_10_Select1stESt4hashIS2_ENS_18_Mod_range_hashingENS_20_Default_ranged_hashELb1EE15_M_bucket_indexEPKNS_10_Hash_nodeIS4_Lb1EEEm
__ZNKSt8__detail15_Hash_code_baseISt4pairIiiES1_IKS2_dENS_10_Select1stESt4hashIS2_ENS_18_Mod_range_hashingENS_20_Default_ranged_hashELb1EE15_M_bucket_indexEPKNS_10_Hash_nodeIS4_Lb1EEEm:
LFB3761:
	pushq	%rbp
LCFI185:
	movq	%rsp, %rbp
LCFI186:
	subq	$32, %rsp
	movq	%rdi, -8(%rbp)
	movq	%rsi, -16(%rbp)
	movq	%rdx, -24(%rbp)
	movq	-8(%rbp), %rax
	movq	%rax, %rdi
	call	__ZNKSt8__detail15_Hash_code_baseISt4pairIiiES1_IKS2_dENS_10_Select1stESt4hashIS2_ENS_18_Mod_range_hashingENS_20_Default_ranged_hashELb1EE5_M_h2Ev
	movq	%rax, %rcx
	movq	-16(%rbp), %rax
	movq	24(%rax), %rax
	movq	-24(%rbp), %rdx
	movq	%rax, %rsi
	movq	%rcx, %rdi
	call	__ZNKSt8__detail18_Mod_range_hashingclEmm
	leave
LCFI187:
	ret
LFE3761:
	.section __DATA,__gcc_except_tab
GCC_except_table8:
LLSDA3761:
	.byte	0xff
	.byte	0xff
	.byte	0x3
	.byte	0
	.text
	.align 1,0x90
	.globl __ZN9__gnu_cxx13new_allocatorI8PositionE10deallocateEPS1_m
	.weak_definition __ZN9__gnu_cxx13new_allocatorI8PositionE10deallocateEPS1_m
__ZN9__gnu_cxx13new_allocatorI8PositionE10deallocateEPS1_m:
LFB3796:
	pushq	%rbp
LCFI188:
	movq	%rsp, %rbp
LCFI189:
	subq	$32, %rsp
	movq	%rdi, -8(%rbp)
	movq	%rsi, -16(%rbp)
	movq	%rdx, -24(%rbp)
	movq	-16(%rbp), %rax
	movq	%rax, %rdi
	call	__ZdlPv
	nop
	leave
LCFI190:
	ret
LFE3796:
	.globl __ZNSt12_Destroy_auxILb1EE9__destroyIP8PositionEEvT_S4_
	.weak_definition __ZNSt12_Destroy_auxILb1EE9__destroyIP8PositionEEvT_S4_
__ZNSt12_Destroy_auxILb1EE9__destroyIP8PositionEEvT_S4_:
LFB3797:
	pushq	%rbp
LCFI191:
	movq	%rsp, %rbp
LCFI192:
	movq	%rdi, -8(%rbp)
	movq	%rsi, -16(%rbp)
	nop
	popq	%rbp
LCFI193:
	ret
LFE3797:
	.align 1,0x90
	.globl __ZN9__gnu_cxx13new_allocatorI7GasAtomE10deallocateEPS1_m
	.weak_definition __ZN9__gnu_cxx13new_allocatorI7GasAtomE10deallocateEPS1_m
__ZN9__gnu_cxx13new_allocatorI7GasAtomE10deallocateEPS1_m:
LFB3805:
	pushq	%rbp
LCFI194:
	movq	%rsp, %rbp
LCFI195:
	subq	$32, %rsp
	movq	%rdi, -8(%rbp)
	movq	%rsi, -16(%rbp)
	movq	%rdx, -24(%rbp)
	movq	-16(%rbp), %rax
	movq	%rax, %rdi
	call	__ZdlPv
	nop
	leave
LCFI196:
	ret
LFE3805:
	.globl __ZNSt12_Destroy_auxILb0EE9__destroyIP7GasAtomEEvT_S4_
	.weak_definition __ZNSt12_Destroy_auxILb0EE9__destroyIP7GasAtomEEvT_S4_
__ZNSt12_Destroy_auxILb0EE9__destroyIP7GasAtomEEvT_S4_:
LFB3806:
	pushq	%rbp
LCFI197:
	movq	%rsp, %rbp
LCFI198:
	subq	$16, %rsp
	movq	%rdi, -8(%rbp)
	movq	%rsi, -16(%rbp)
L109:
	movq	-8(%rbp), %rax
	cmpq	-16(%rbp), %rax
	je	L110
	movq	-8(%rbp), %rax
	movq	%rax, %rdi
	call	__ZSt11__addressofI7GasAtomEPT_RS1_
	movq	%rax, %rdi
	call	__ZSt8_DestroyI7GasAtomEvPT_
	addq	$64, -8(%rbp)
	jmp	L109
L110:
	nop
	leave
LCFI199:
	ret
LFE3806:
	.align 1,0x90
	.globl __ZNKSt8__detail10_Hash_nodeISt4pairIKS1_IiiEdELb1EE7_M_nextEv
	.weak_definition __ZNKSt8__detail10_Hash_nodeISt4pairIKS1_IiiEdELb1EE7_M_nextEv
__ZNKSt8__detail10_Hash_nodeISt4pairIKS1_IiiEdELb1EE7_M_nextEv:
LFB3807:
	pushq	%rbp
LCFI200:
	movq	%rsp, %rbp
LCFI201:
	movq	%rdi, -8(%rbp)
	movq	-8(%rbp), %rax
	movq	(%rax), %rax
	popq	%rbp
LCFI202:
	ret
LFE3807:
	.align 1,0x90
	.globl __ZNSt8__detail16_Hashtable_allocISaINS_10_Hash_nodeISt4pairIKS2_IiiEdELb1EEEEE18_M_deallocate_nodeEPS6_
	.weak_definition __ZNSt8__detail16_Hashtable_allocISaINS_10_Hash_nodeISt4pairIKS2_IiiEdELb1EEEEE18_M_deallocate_nodeEPS6_
__ZNSt8__detail16_Hashtable_allocISaINS_10_Hash_nodeISt4pairIKS2_IiiEdELb1EEEEE18_M_deallocate_nodeEPS6_:
LFB3808:
	pushq	%rbp
LCFI203:
	movq	%rsp, %rbp
LCFI204:
	pushq	%rbx
	subq	$24, %rsp
LCFI205:
	movq	%rdi, -24(%rbp)
	movq	%rsi, -32(%rbp)
	movq	-32(%rbp), %rax
	movq	%rax, %rdi
	call	__ZNSt8__detail21_Hash_node_value_baseISt4pairIKS1_IiiEdEE9_M_valptrEv
	movq	%rax, %rbx
	movq	-24(%rbp), %rax
	movq	%rax, %rdi
	call	__ZNSt8__detail16_Hashtable_allocISaINS_10_Hash_nodeISt4pairIKS2_IiiEdELb1EEEEE17_M_node_allocatorEv
	movq	%rbx, %rsi
	movq	%rax, %rdi
	call	__ZNSt16allocator_traitsISaINSt8__detail10_Hash_nodeISt4pairIKS2_IiiEdELb1EEEEE7destroyIS5_EEvRS7_PT_
	movq	-32(%rbp), %rdx
	movq	-24(%rbp), %rax
	movq	%rdx, %rsi
	movq	%rax, %rdi
	call	__ZNSt8__detail16_Hashtable_allocISaINS_10_Hash_nodeISt4pairIKS2_IiiEdELb1EEEEE22_M_deallocate_node_ptrEPS6_
	nop
	addq	$24, %rsp
	popq	%rbx
	popq	%rbp
LCFI206:
	ret
LFE3808:
	.align 1,0x90
	.globl __ZNSt8__detail16_Hashtable_allocISaINS_10_Hash_nodeISt4pairIKS2_IiiEdELb1EEEEE21_M_deallocate_bucketsEPPNS_15_Hash_node_baseEm
	.weak_definition __ZNSt8__detail16_Hashtable_allocISaINS_10_Hash_nodeISt4pairIKS2_IiiEdELb1EEEEE21_M_deallocate_bucketsEPPNS_15_Hash_node_baseEm
__ZNSt8__detail16_Hashtable_allocISaINS_10_Hash_nodeISt4pairIKS2_IiiEdELb1EEEEE21_M_deallocate_bucketsEPPNS_15_Hash_node_baseEm:
LFB3809:
	pushq	%rbp
LCFI207:
	movq	%rsp, %rbp
LCFI208:
	pushq	%rbx
	subq	$56, %rsp
LCFI209:
	movq	%rdi, -40(%rbp)
	movq	%rsi, -48(%rbp)
	movq	%rdx, -56(%rbp)
	movq	-48(%rbp), %rax
	movq	%rax, %rdi
	call	__ZNSt14pointer_traitsIPPNSt8__detail15_Hash_node_baseEE10pointer_toERS2_
	movq	%rax, -24(%rbp)
	movq	-40(%rbp), %rax
	movq	%rax, %rdi
LEHB5:
	call	__ZNSt8__detail16_Hashtable_allocISaINS_10_Hash_nodeISt4pairIKS2_IiiEdELb1EEEEE17_M_node_allocatorEv
LEHE5:
	movq	%rax, %rdx
	leaq	-25(%rbp), %rax
	movq	%rdx, %rsi
	movq	%rax, %rdi
	call	__ZNSaIPNSt8__detail15_Hash_node_baseEEC1INS_10_Hash_nodeISt4pairIKS5_IiiEdELb1EEEEERKSaIT_E
	movq	-56(%rbp), %rdx
	movq	-24(%rbp), %rcx
	leaq	-25(%rbp), %rax
	movq	%rcx, %rsi
	movq	%rax, %rdi
LEHB6:
	call	__ZNSt16allocator_traitsISaIPNSt8__detail15_Hash_node_baseEEE10deallocateERS3_PS2_m
LEHE6:
	leaq	-25(%rbp), %rax
	movq	%rax, %rdi
	call	__ZNSaIPNSt8__detail15_Hash_node_baseEED1Ev
	jmp	L117
L116:
	movq	%rax, %rbx
	leaq	-25(%rbp), %rax
	movq	%rax, %rdi
	call	__ZNSaIPNSt8__detail15_Hash_node_baseEED1Ev
	movq	%rbx, %rax
	movq	%rax, %rdi
LEHB7:
	call	__Unwind_Resume
LEHE7:
L117:
	addq	$56, %rsp
	popq	%rbx
	popq	%rbp
LCFI210:
	ret
LFE3809:
	.section __DATA,__gcc_except_tab
GCC_except_table9:
LLSDA3809:
	.byte	0xff
	.byte	0xff
	.byte	0x3
	.byte	0x27
	.set L$set$12,LEHB5-LFB3809
	.long L$set$12
	.set L$set$13,LEHE5-LEHB5
	.long L$set$13
	.long	0
	.byte	0
	.set L$set$14,LEHB6-LFB3809
	.long L$set$14
	.set L$set$15,LEHE6-LEHB6
	.long L$set$15
	.set L$set$16,L116-LFB3809
	.long L$set$16
	.byte	0
	.set L$set$17,LEHB7-LFB3809
	.long L$set$17
	.set L$set$18,LEHE7-LEHB7
	.long L$set$18
	.long	0
	.byte	0
	.text
	.align 1,0x90
	.globl __ZNKSt10_HashtableISt4pairIiiES0_IKS1_dESaIS3_ENSt8__detail10_Select1stESt8equal_toIS1_ESt4hashIS1_ENS5_18_Mod_range_hashingENS5_20_Default_ranged_hashENS5_20_Prime_rehash_policyENS5_17_Hashtable_traitsILb1ELb0ELb1EEEE15__rehash_policyEv
	.weak_definition __ZNKSt10_HashtableISt4pairIiiES0_IKS1_dESaIS3_ENSt8__detail10_Select1stESt8equal_toIS1_ESt4hashIS1_ENS5_18_Mod_range_hashingENS5_20_Default_ranged_hashENS5_20_Prime_rehash_policyENS5_17_Hashtable_traitsILb1ELb0ELb1EEEE15__rehash_policyEv
__ZNKSt10_HashtableISt4pairIiiES0_IKS1_dESaIS3_ENSt8__detail10_Select1stESt8equal_toIS1_ESt4hashIS1_ENS5_18_Mod_range_hashingENS5_20_Default_ranged_hashENS5_20_Prime_rehash_policyENS5_17_Hashtable_traitsILb1ELb0ELb1EEEE15__rehash_policyEv:
LFB3810:
	pushq	%rbp
LCFI211:
	movq	%rsp, %rbp
LCFI212:
	movq	%rdi, -8(%rbp)
	movq	-8(%rbp), %rax
	addq	$32, %rax
	popq	%rbp
LCFI213:
	ret
LFE3810:
	.align 1,0x90
	.globl __ZNSt10_HashtableISt4pairIiiES0_IKS1_dESaIS3_ENSt8__detail10_Select1stESt8equal_toIS1_ESt4hashIS1_ENS5_18_Mod_range_hashingENS5_20_Default_ranged_hashENS5_20_Prime_rehash_policyENS5_17_Hashtable_traitsILb1ELb0ELb1EEEE9_M_rehashEmRKm
	.weak_definition __ZNSt10_HashtableISt4pairIiiES0_IKS1_dESaIS3_ENSt8__detail10_Select1stESt8equal_toIS1_ESt4hashIS1_ENS5_18_Mod_range_hashingENS5_20_Default_ranged_hashENS5_20_Prime_rehash_policyENS5_17_Hashtable_traitsILb1ELb0ELb1EEEE9_M_rehashEmRKm
__ZNSt10_HashtableISt4pairIiiES0_IKS1_dESaIS3_ENSt8__detail10_Select1stESt8equal_toIS1_ESt4hashIS1_ENS5_18_Mod_range_hashingENS5_20_Default_ranged_hashENS5_20_Prime_rehash_policyENS5_17_Hashtable_traitsILb1ELb0ELb1EEEE9_M_rehashEmRKm:
LFB3811:
	pushq	%rbp
LCFI214:
	movq	%rsp, %rbp
LCFI215:
	pushq	%rbx
	subq	$56, %rsp
LCFI216:
	movq	%rdi, -40(%rbp)
	movq	%rsi, -48(%rbp)
	movq	%rdx, -56(%rbp)
	movq	-48(%rbp), %rdx
	movq	-40(%rbp), %rax
	movq	%rdx, %rsi
	movq	%rax, %rdi
LEHB8:
	call	__ZNSt10_HashtableISt4pairIiiES0_IKS1_dESaIS3_ENSt8__detail10_Select1stESt8equal_toIS1_ESt4hashIS1_ENS5_18_Mod_range_hashingENS5_20_Default_ranged_hashENS5_20_Prime_rehash_policyENS5_17_Hashtable_traitsILb1ELb0ELb1EEEE13_M_rehash_auxEmSt17integral_constantIbLb1EE
LEHE8:
	jmp	L125
L123:
	movq	%rax, %rdi
	call	___cxa_begin_catch
	movq	-40(%rbp), %rax
	addq	$32, %rax
	movq	-56(%rbp), %rdx
	movq	(%rdx), %rdx
	movq	%rdx, %rsi
	movq	%rax, %rdi
	call	__ZNSt8__detail20_Prime_rehash_policy8_M_resetEm
LEHB9:
	call	___cxa_rethrow
LEHE9:
L124:
	movq	%rax, %rbx
	call	___cxa_end_catch
	movq	%rbx, %rax
	movq	%rax, %rdi
LEHB10:
	call	__Unwind_Resume
LEHE10:
L125:
	addq	$56, %rsp
	popq	%rbx
	popq	%rbp
LCFI217:
	ret
LFE3811:
	.section __DATA,__gcc_except_tab
GCC_except_table10:
	.align 3
LLSDA3811:
	.byte	0xff
	.byte	0
	.byte	0x35
	.byte	0x3
	.byte	0x27
	.set L$set$19,LEHB8-LFB3811
	.long L$set$19
	.set L$set$20,LEHE8-LEHB8
	.long L$set$20
	.set L$set$21,L123-LFB3811
	.long L$set$21
	.byte	0x1
	.set L$set$22,LEHB9-LFB3811
	.long L$set$22
	.set L$set$23,LEHE9-LEHB9
	.long L$set$23
	.set L$set$24,L124-LFB3811
	.long L$set$24
	.byte	0
	.set L$set$25,LEHB10-LFB3811
	.long L$set$25
	.set L$set$26,LEHE10-LEHB10
	.long L$set$26
	.long	0
	.byte	0
	.byte	0x1
	.byte	0
	.align 3
	.quad	0
	.text
	.align 1,0x90
	.globl __ZNKSt8__detail15_Hash_code_baseISt4pairIiiES1_IKS2_dENS_10_Select1stESt4hashIS2_ENS_18_Mod_range_hashingENS_20_Default_ranged_hashELb1EE5_M_h2Ev
	.weak_definition __ZNKSt8__detail15_Hash_code_baseISt4pairIiiES1_IKS2_dENS_10_Select1stESt4hashIS2_ENS_18_Mod_range_hashingENS_20_Default_ranged_hashELb1EE5_M_h2Ev
__ZNKSt8__detail15_Hash_code_baseISt4pairIiiES1_IKS2_dENS_10_Select1stESt4hashIS2_ENS_18_Mod_range_hashingENS_20_Default_ranged_hashELb1EE5_M_h2Ev:
LFB3812:
	pushq	%rbp
LCFI218:
	movq	%rsp, %rbp
LCFI219:
	subq	$16, %rsp
	movq	%rdi, -8(%rbp)
	movq	-8(%rbp), %rax
	movq	%rax, %rdi
	call	__ZNSt8__detail21_Hashtable_ebo_helperILi2ENS_18_Mod_range_hashingELb1EE7_S_cgetERKS2_
	leave
LCFI220:
	ret
LFE3812:
	.globl __ZSt11__addressofI7GasAtomEPT_RS1_
	.weak_definition __ZSt11__addressofI7GasAtomEPT_RS1_
__ZSt11__addressofI7GasAtomEPT_RS1_:
LFB3850:
	pushq	%rbp
LCFI221:
	movq	%rsp, %rbp
LCFI222:
	movq	%rdi, -8(%rbp)
	movq	-8(%rbp), %rax
	popq	%rbp
LCFI223:
	ret
LFE3850:
	.align 1,0x90
	.globl __ZN7GasAtomD1Ev
	.weak_definition __ZN7GasAtomD1Ev
__ZN7GasAtomD1Ev:
LFB3854:
	pushq	%rbp
LCFI224:
	movq	%rsp, %rbp
LCFI225:
	subq	$16, %rsp
	movq	%rdi, -8(%rbp)
	movq	-8(%rbp), %rax
	addq	$40, %rax
	movq	%rax, %rdi
	call	__ZNSt6vectorI8PositionSaIS0_EED1Ev
	nop
	leave
LCFI226:
	ret
LFE3854:
	.globl __ZSt8_DestroyI7GasAtomEvPT_
	.weak_definition __ZSt8_DestroyI7GasAtomEvPT_
__ZSt8_DestroyI7GasAtomEvPT_:
LFB3851:
	pushq	%rbp
LCFI227:
	movq	%rsp, %rbp
LCFI228:
	subq	$16, %rsp
	movq	%rdi, -8(%rbp)
	movq	-8(%rbp), %rax
	movq	%rax, %rdi
	call	__ZN7GasAtomD1Ev
	nop
	leave
LCFI229:
	ret
LFE3851:
	.align 1,0x90
	.globl __ZNSt8__detail16_Hashtable_allocISaINS_10_Hash_nodeISt4pairIKS2_IiiEdELb1EEEEE17_M_node_allocatorEv
	.weak_definition __ZNSt8__detail16_Hashtable_allocISaINS_10_Hash_nodeISt4pairIKS2_IiiEdELb1EEEEE17_M_node_allocatorEv
__ZNSt8__detail16_Hashtable_allocISaINS_10_Hash_nodeISt4pairIKS2_IiiEdELb1EEEEE17_M_node_allocatorEv:
LFB3855:
	pushq	%rbp
LCFI230:
	movq	%rsp, %rbp
LCFI231:
	subq	$16, %rsp
	movq	%rdi, -8(%rbp)
	movq	-8(%rbp), %rax
	movq	%rax, %rdi
	call	__ZNSt8__detail21_Hashtable_ebo_helperILi0ESaINS_10_Hash_nodeISt4pairIKS2_IiiEdELb1EEEELb1EE6_S_getERS8_
	leave
LCFI232:
	ret
LFE3855:
	.align 1,0x90
	.globl __ZNSt8__detail21_Hash_node_value_baseISt4pairIKS1_IiiEdEE9_M_valptrEv
	.weak_definition __ZNSt8__detail21_Hash_node_value_baseISt4pairIKS1_IiiEdEE9_M_valptrEv
__ZNSt8__detail21_Hash_node_value_baseISt4pairIKS1_IiiEdEE9_M_valptrEv:
LFB3856:
	pushq	%rbp
LCFI233:
	movq	%rsp, %rbp
LCFI234:
	subq	$16, %rsp
	movq	%rdi, -8(%rbp)
	movq	-8(%rbp), %rax
	addq	$8, %rax
	movq	%rax, %rdi
	call	__ZN9__gnu_cxx16__aligned_bufferISt4pairIKS1_IiiEdEE6_M_ptrEv
	leave
LCFI235:
	ret
LFE3856:
	.globl __ZNSt16allocator_traitsISaINSt8__detail10_Hash_nodeISt4pairIKS2_IiiEdELb1EEEEE7destroyIS5_EEvRS7_PT_
	.weak_definition __ZNSt16allocator_traitsISaINSt8__detail10_Hash_nodeISt4pairIKS2_IiiEdELb1EEEEE7destroyIS5_EEvRS7_PT_
__ZNSt16allocator_traitsISaINSt8__detail10_Hash_nodeISt4pairIKS2_IiiEdELb1EEEEE7destroyIS5_EEvRS7_PT_:
LFB3857:
	pushq	%rbp
LCFI236:
	movq	%rsp, %rbp
LCFI237:
	subq	$16, %rsp
	movq	%rdi, -8(%rbp)
	movq	%rsi, -16(%rbp)
	movq	-16(%rbp), %rdx
	movq	-8(%rbp), %rax
	movq	%rdx, %rsi
	movq	%rax, %rdi
	call	__ZN9__gnu_cxx13new_allocatorINSt8__detail10_Hash_nodeISt4pairIKS3_IiiEdELb1EEEE7destroyIS6_EEvPT_
	nop
	leave
LCFI238:
	ret
LFE3857:
	.align 1,0x90
	.globl __ZNSt8__detail16_Hashtable_allocISaINS_10_Hash_nodeISt4pairIKS2_IiiEdELb1EEEEE22_M_deallocate_node_ptrEPS6_
	.weak_definition __ZNSt8__detail16_Hashtable_allocISaINS_10_Hash_nodeISt4pairIKS2_IiiEdELb1EEEEE22_M_deallocate_node_ptrEPS6_
__ZNSt8__detail16_Hashtable_allocISaINS_10_Hash_nodeISt4pairIKS2_IiiEdELb1EEEEE22_M_deallocate_node_ptrEPS6_:
LFB3858:
	pushq	%rbp
LCFI239:
	movq	%rsp, %rbp
LCFI240:
	subq	$32, %rsp
	movq	%rdi, -24(%rbp)
	movq	%rsi, -32(%rbp)
	movq	-32(%rbp), %rax
	movq	%rax, %rdi
	call	__ZNSt14pointer_traitsIPNSt8__detail10_Hash_nodeISt4pairIKS2_IiiEdELb1EEEE10pointer_toERS6_
	movq	%rax, -8(%rbp)
	movq	-24(%rbp), %rax
	movq	%rax, %rdi
	call	__ZNSt8__detail16_Hashtable_allocISaINS_10_Hash_nodeISt4pairIKS2_IiiEdELb1EEEEE17_M_node_allocatorEv
	movq	%rax, %rcx
	movq	-8(%rbp), %rax
	movl	$1, %edx
	movq	%rax, %rsi
	movq	%rcx, %rdi
	call	__ZNSt16allocator_traitsISaINSt8__detail10_Hash_nodeISt4pairIKS2_IiiEdELb1EEEEE10deallocateERS7_PS6_m
	nop
	leave
LCFI241:
	ret
LFE3858:
	.globl __ZNSt14pointer_traitsIPPNSt8__detail15_Hash_node_baseEE10pointer_toERS2_
	.weak_definition __ZNSt14pointer_traitsIPPNSt8__detail15_Hash_node_baseEE10pointer_toERS2_
__ZNSt14pointer_traitsIPPNSt8__detail15_Hash_node_baseEE10pointer_toERS2_:
LFB3859:
	pushq	%rbp
LCFI242:
	movq	%rsp, %rbp
LCFI243:
	subq	$16, %rsp
	movq	%rdi, -8(%rbp)
	movq	-8(%rbp), %rax
	movq	%rax, %rdi
	call	__ZSt9addressofIPNSt8__detail15_Hash_node_baseEEPT_RS3_
	leave
LCFI244:
	ret
LFE3859:
	.align 1,0x90
	.globl __ZNSaIPNSt8__detail15_Hash_node_baseEEC1INS_10_Hash_nodeISt4pairIKS5_IiiEdELb1EEEEERKSaIT_E
	.weak_definition __ZNSaIPNSt8__detail15_Hash_node_baseEEC1INS_10_Hash_nodeISt4pairIKS5_IiiEdELb1EEEEERKSaIT_E
__ZNSaIPNSt8__detail15_Hash_node_baseEEC1INS_10_Hash_nodeISt4pairIKS5_IiiEdELb1EEEEERKSaIT_E:
LFB3862:
	pushq	%rbp
LCFI245:
	movq	%rsp, %rbp
LCFI246:
	subq	$16, %rsp
	movq	%rdi, -8(%rbp)
	movq	%rsi, -16(%rbp)
	movq	-8(%rbp), %rax
	movq	%rax, %rdi
	call	__ZN9__gnu_cxx13new_allocatorIPNSt8__detail15_Hash_node_baseEEC2Ev
	nop
	leave
LCFI247:
	ret
LFE3862:
	.align 1,0x90
	.globl __ZNSaIPNSt8__detail15_Hash_node_baseEED1Ev
	.weak_definition __ZNSaIPNSt8__detail15_Hash_node_baseEED1Ev
__ZNSaIPNSt8__detail15_Hash_node_baseEED1Ev:
LFB3865:
	pushq	%rbp
LCFI248:
	movq	%rsp, %rbp
LCFI249:
	subq	$16, %rsp
	movq	%rdi, -8(%rbp)
	movq	-8(%rbp), %rax
	movq	%rax, %rdi
	call	__ZN9__gnu_cxx13new_allocatorIPNSt8__detail15_Hash_node_baseEED2Ev
	nop
	leave
LCFI250:
	ret
LFE3865:
	.globl __ZNSt16allocator_traitsISaIPNSt8__detail15_Hash_node_baseEEE10deallocateERS3_PS2_m
	.weak_definition __ZNSt16allocator_traitsISaIPNSt8__detail15_Hash_node_baseEEE10deallocateERS3_PS2_m
__ZNSt16allocator_traitsISaIPNSt8__detail15_Hash_node_baseEEE10deallocateERS3_PS2_m:
LFB3866:
	pushq	%rbp
LCFI251:
	movq	%rsp, %rbp
LCFI252:
	subq	$32, %rsp
	movq	%rdi, -8(%rbp)
	movq	%rsi, -16(%rbp)
	movq	%rdx, -24(%rbp)
	movq	-24(%rbp), %rdx
	movq	-16(%rbp), %rcx
	movq	-8(%rbp), %rax
	movq	%rcx, %rsi
	movq	%rax, %rdi
	call	__ZN9__gnu_cxx13new_allocatorIPNSt8__detail15_Hash_node_baseEE10deallocateEPS3_m
	nop
	leave
LCFI253:
	ret
LFE3866:
	.align 1,0x90
	.globl __ZNSt10_HashtableISt4pairIiiES0_IKS1_dESaIS3_ENSt8__detail10_Select1stESt8equal_toIS1_ESt4hashIS1_ENS5_18_Mod_range_hashingENS5_20_Default_ranged_hashENS5_20_Prime_rehash_policyENS5_17_Hashtable_traitsILb1ELb0ELb1EEEE13_M_rehash_auxEmSt17integral_constantIbLb1EE
	.weak_definition __ZNSt10_HashtableISt4pairIiiES0_IKS1_dESaIS3_ENSt8__detail10_Select1stESt8equal_toIS1_ESt4hashIS1_ENS5_18_Mod_range_hashingENS5_20_Default_ranged_hashENS5_20_Prime_rehash_policyENS5_17_Hashtable_traitsILb1ELb0ELb1EEEE13_M_rehash_auxEmSt17integral_constantIbLb1EE
__ZNSt10_HashtableISt4pairIiiES0_IKS1_dESaIS3_ENSt8__detail10_Select1stESt8equal_toIS1_ESt4hashIS1_ENS5_18_Mod_range_hashingENS5_20_Default_ranged_hashENS5_20_Prime_rehash_policyENS5_17_Hashtable_traitsILb1ELb0ELb1EEEE13_M_rehash_auxEmSt17integral_constantIbLb1EE:
LFB3867:
	pushq	%rbp
LCFI254:
	movq	%rsp, %rbp
LCFI255:
	subq	$64, %rsp
	movq	%rdi, -56(%rbp)
	movq	%rsi, -64(%rbp)
	movq	-64(%rbp), %rdx
	movq	-56(%rbp), %rax
	movq	%rdx, %rsi
	movq	%rax, %rdi
	call	__ZNSt10_HashtableISt4pairIiiES0_IKS1_dESaIS3_ENSt8__detail10_Select1stESt8equal_toIS1_ESt4hashIS1_ENS5_18_Mod_range_hashingENS5_20_Default_ranged_hashENS5_20_Prime_rehash_policyENS5_17_Hashtable_traitsILb1ELb0ELb1EEEE19_M_allocate_bucketsEm
	movq	%rax, -24(%rbp)
	movq	-56(%rbp), %rax
	movq	%rax, %rdi
	call	__ZNKSt10_HashtableISt4pairIiiES0_IKS1_dESaIS3_ENSt8__detail10_Select1stESt8equal_toIS1_ESt4hashIS1_ENS5_18_Mod_range_hashingENS5_20_Default_ranged_hashENS5_20_Prime_rehash_policyENS5_17_Hashtable_traitsILb1ELb0ELb1EEEE8_M_beginEv
	movq	%rax, -8(%rbp)
	movq	-56(%rbp), %rax
	movq	$0, 16(%rax)
	movq	$0, -16(%rbp)
L148:
	cmpq	$0, -8(%rbp)
	je	L144
	movq	-8(%rbp), %rax
	movq	%rax, %rdi
	call	__ZNKSt8__detail10_Hash_nodeISt4pairIKS1_IiiEdELb1EE7_M_nextEv
	movq	%rax, -32(%rbp)
	movq	-64(%rbp), %rdx
	movq	-8(%rbp), %rcx
	movq	-56(%rbp), %rax
	movq	%rcx, %rsi
	movq	%rax, %rdi
	call	__ZNKSt8__detail15_Hash_code_baseISt4pairIiiES1_IKS2_dENS_10_Select1stESt4hashIS2_ENS_18_Mod_range_hashingENS_20_Default_ranged_hashELb1EE15_M_bucket_indexEPKNS_10_Hash_nodeIS4_Lb1EEEm
	movq	%rax, -40(%rbp)
	movq	-40(%rbp), %rax
	leaq	0(,%rax,8), %rdx
	movq	-24(%rbp), %rax
	addq	%rdx, %rax
	movq	(%rax), %rax
	testq	%rax, %rax
	jne	L145
	movq	-56(%rbp), %rax
	movq	16(%rax), %rdx
	movq	-8(%rbp), %rax
	movq	%rdx, (%rax)
	movq	-56(%rbp), %rax
	movq	-8(%rbp), %rdx
	movq	%rdx, 16(%rax)
	movq	-40(%rbp), %rax
	leaq	0(,%rax,8), %rdx
	movq	-24(%rbp), %rax
	addq	%rdx, %rax
	movq	-56(%rbp), %rdx
	addq	$16, %rdx
	movq	%rdx, (%rax)
	movq	-8(%rbp), %rax
	movq	(%rax), %rax
	testq	%rax, %rax
	je	L146
	movq	-16(%rbp), %rax
	leaq	0(,%rax,8), %rdx
	movq	-24(%rbp), %rax
	addq	%rdx, %rax
	movq	-8(%rbp), %rdx
	movq	%rdx, (%rax)
L146:
	movq	-40(%rbp), %rax
	movq	%rax, -16(%rbp)
	jmp	L147
L145:
	movq	-40(%rbp), %rax
	leaq	0(,%rax,8), %rdx
	movq	-24(%rbp), %rax
	addq	%rdx, %rax
	movq	(%rax), %rax
	movq	(%rax), %rdx
	movq	-8(%rbp), %rax
	movq	%rdx, (%rax)
	movq	-40(%rbp), %rax
	leaq	0(,%rax,8), %rdx
	movq	-24(%rbp), %rax
	addq	%rdx, %rax
	movq	(%rax), %rax
	movq	-8(%rbp), %rdx
	movq	%rdx, (%rax)
L147:
	movq	-32(%rbp), %rax
	movq	%rax, -8(%rbp)
	jmp	L148
L144:
	movq	-56(%rbp), %rax
	movq	%rax, %rdi
	call	__ZNSt10_HashtableISt4pairIiiES0_IKS1_dESaIS3_ENSt8__detail10_Select1stESt8equal_toIS1_ESt4hashIS1_ENS5_18_Mod_range_hashingENS5_20_Default_ranged_hashENS5_20_Prime_rehash_policyENS5_17_Hashtable_traitsILb1ELb0ELb1EEEE21_M_deallocate_bucketsEv
	movq	-56(%rbp), %rax
	movq	-64(%rbp), %rdx
	movq	%rdx, 8(%rax)
	movq	-56(%rbp), %rax
	movq	-24(%rbp), %rdx
	movq	%rdx, (%rax)
	nop
	leave
LCFI256:
	ret
LFE3867:
	.globl __ZNSt8__detail21_Hashtable_ebo_helperILi2ENS_18_Mod_range_hashingELb1EE7_S_cgetERKS2_
	.weak_definition __ZNSt8__detail21_Hashtable_ebo_helperILi2ENS_18_Mod_range_hashingELb1EE7_S_cgetERKS2_
__ZNSt8__detail21_Hashtable_ebo_helperILi2ENS_18_Mod_range_hashingELb1EE7_S_cgetERKS2_:
LFB3868:
	pushq	%rbp
LCFI257:
	movq	%rsp, %rbp
LCFI258:
	movq	%rdi, -8(%rbp)
	movq	-8(%rbp), %rax
	popq	%rbp
LCFI259:
	ret
LFE3868:
	.globl __ZNSt8__detail21_Hashtable_ebo_helperILi0ESaINS_10_Hash_nodeISt4pairIKS2_IiiEdELb1EEEELb1EE6_S_getERS8_
	.weak_definition __ZNSt8__detail21_Hashtable_ebo_helperILi0ESaINS_10_Hash_nodeISt4pairIKS2_IiiEdELb1EEEELb1EE6_S_getERS8_
__ZNSt8__detail21_Hashtable_ebo_helperILi0ESaINS_10_Hash_nodeISt4pairIKS2_IiiEdELb1EEEELb1EE6_S_getERS8_:
LFB3901:
	pushq	%rbp
LCFI260:
	movq	%rsp, %rbp
LCFI261:
	movq	%rdi, -8(%rbp)
	movq	-8(%rbp), %rax
	popq	%rbp
LCFI262:
	ret
LFE3901:
	.align 1,0x90
	.globl __ZN9__gnu_cxx16__aligned_bufferISt4pairIKS1_IiiEdEE6_M_ptrEv
	.weak_definition __ZN9__gnu_cxx16__aligned_bufferISt4pairIKS1_IiiEdEE6_M_ptrEv
__ZN9__gnu_cxx16__aligned_bufferISt4pairIKS1_IiiEdEE6_M_ptrEv:
LFB3902:
	pushq	%rbp
LCFI263:
	movq	%rsp, %rbp
LCFI264:
	subq	$16, %rsp
	movq	%rdi, -8(%rbp)
	movq	-8(%rbp), %rax
	movq	%rax, %rdi
	call	__ZN9__gnu_cxx16__aligned_bufferISt4pairIKS1_IiiEdEE7_M_addrEv
	leave
LCFI265:
	ret
LFE3902:
	.align 1,0x90
	.globl __ZN9__gnu_cxx13new_allocatorINSt8__detail10_Hash_nodeISt4pairIKS3_IiiEdELb1EEEE7destroyIS6_EEvPT_
	.weak_definition __ZN9__gnu_cxx13new_allocatorINSt8__detail10_Hash_nodeISt4pairIKS3_IiiEdELb1EEEE7destroyIS6_EEvPT_
__ZN9__gnu_cxx13new_allocatorINSt8__detail10_Hash_nodeISt4pairIKS3_IiiEdELb1EEEE7destroyIS6_EEvPT_:
LFB3903:
	pushq	%rbp
LCFI266:
	movq	%rsp, %rbp
LCFI267:
	movq	%rdi, -8(%rbp)
	movq	%rsi, -16(%rbp)
	nop
	popq	%rbp
LCFI268:
	ret
LFE3903:
	.globl __ZNSt14pointer_traitsIPNSt8__detail10_Hash_nodeISt4pairIKS2_IiiEdELb1EEEE10pointer_toERS6_
	.weak_definition __ZNSt14pointer_traitsIPNSt8__detail10_Hash_nodeISt4pairIKS2_IiiEdELb1EEEE10pointer_toERS6_
__ZNSt14pointer_traitsIPNSt8__detail10_Hash_nodeISt4pairIKS2_IiiEdELb1EEEE10pointer_toERS6_:
LFB3904:
	pushq	%rbp
LCFI269:
	movq	%rsp, %rbp
LCFI270:
	subq	$16, %rsp
	movq	%rdi, -8(%rbp)
	movq	-8(%rbp), %rax
	movq	%rax, %rdi
	call	__ZSt9addressofINSt8__detail10_Hash_nodeISt4pairIKS2_IiiEdELb1EEEEPT_RS7_
	leave
LCFI271:
	ret
LFE3904:
	.globl __ZNSt16allocator_traitsISaINSt8__detail10_Hash_nodeISt4pairIKS2_IiiEdELb1EEEEE10deallocateERS7_PS6_m
	.weak_definition __ZNSt16allocator_traitsISaINSt8__detail10_Hash_nodeISt4pairIKS2_IiiEdELb1EEEEE10deallocateERS7_PS6_m
__ZNSt16allocator_traitsISaINSt8__detail10_Hash_nodeISt4pairIKS2_IiiEdELb1EEEEE10deallocateERS7_PS6_m:
LFB3905:
	pushq	%rbp
LCFI272:
	movq	%rsp, %rbp
LCFI273:
	subq	$32, %rsp
	movq	%rdi, -8(%rbp)
	movq	%rsi, -16(%rbp)
	movq	%rdx, -24(%rbp)
	movq	-24(%rbp), %rdx
	movq	-16(%rbp), %rcx
	movq	-8(%rbp), %rax
	movq	%rcx, %rsi
	movq	%rax, %rdi
	call	__ZN9__gnu_cxx13new_allocatorINSt8__detail10_Hash_nodeISt4pairIKS3_IiiEdELb1EEEE10deallocateEPS7_m
	nop
	leave
LCFI274:
	ret
LFE3905:
	.globl __ZSt9addressofIPNSt8__detail15_Hash_node_baseEEPT_RS3_
	.weak_definition __ZSt9addressofIPNSt8__detail15_Hash_node_baseEEPT_RS3_
__ZSt9addressofIPNSt8__detail15_Hash_node_baseEEPT_RS3_:
LFB3906:
	pushq	%rbp
LCFI275:
	movq	%rsp, %rbp
LCFI276:
	subq	$16, %rsp
	movq	%rdi, -8(%rbp)
	movq	-8(%rbp), %rax
	movq	%rax, %rdi
	call	__ZSt11__addressofIPNSt8__detail15_Hash_node_baseEEPT_RS3_
	leave
LCFI277:
	ret
LFE3906:
	.align 1,0x90
	.globl __ZN9__gnu_cxx13new_allocatorIPNSt8__detail15_Hash_node_baseEEC2Ev
	.weak_definition __ZN9__gnu_cxx13new_allocatorIPNSt8__detail15_Hash_node_baseEEC2Ev
__ZN9__gnu_cxx13new_allocatorIPNSt8__detail15_Hash_node_baseEEC2Ev:
LFB3908:
	pushq	%rbp
LCFI278:
	movq	%rsp, %rbp
LCFI279:
	movq	%rdi, -8(%rbp)
	nop
	popq	%rbp
LCFI280:
	ret
LFE3908:
	.align 1,0x90
	.globl __ZN9__gnu_cxx13new_allocatorIPNSt8__detail15_Hash_node_baseEED2Ev
	.weak_definition __ZN9__gnu_cxx13new_allocatorIPNSt8__detail15_Hash_node_baseEED2Ev
__ZN9__gnu_cxx13new_allocatorIPNSt8__detail15_Hash_node_baseEED2Ev:
LFB3911:
	pushq	%rbp
LCFI281:
	movq	%rsp, %rbp
LCFI282:
	movq	%rdi, -8(%rbp)
	nop
	popq	%rbp
LCFI283:
	ret
LFE3911:
	.align 1,0x90
	.globl __ZN9__gnu_cxx13new_allocatorIPNSt8__detail15_Hash_node_baseEE10deallocateEPS3_m
	.weak_definition __ZN9__gnu_cxx13new_allocatorIPNSt8__detail15_Hash_node_baseEE10deallocateEPS3_m
__ZN9__gnu_cxx13new_allocatorIPNSt8__detail15_Hash_node_baseEE10deallocateEPS3_m:
LFB3913:
	pushq	%rbp
LCFI284:
	movq	%rsp, %rbp
LCFI285:
	subq	$32, %rsp
	movq	%rdi, -8(%rbp)
	movq	%rsi, -16(%rbp)
	movq	%rdx, -24(%rbp)
	movq	-16(%rbp), %rax
	movq	%rax, %rdi
	call	__ZdlPv
	nop
	leave
LCFI286:
	ret
LFE3913:
	.align 1,0x90
	.globl __ZNSt10_HashtableISt4pairIiiES0_IKS1_dESaIS3_ENSt8__detail10_Select1stESt8equal_toIS1_ESt4hashIS1_ENS5_18_Mod_range_hashingENS5_20_Default_ranged_hashENS5_20_Prime_rehash_policyENS5_17_Hashtable_traitsILb1ELb0ELb1EEEE19_M_allocate_bucketsEm
	.weak_definition __ZNSt10_HashtableISt4pairIiiES0_IKS1_dESaIS3_ENSt8__detail10_Select1stESt8equal_toIS1_ESt4hashIS1_ENS5_18_Mod_range_hashingENS5_20_Default_ranged_hashENS5_20_Prime_rehash_policyENS5_17_Hashtable_traitsILb1ELb0ELb1EEEE19_M_allocate_bucketsEm
__ZNSt10_HashtableISt4pairIiiES0_IKS1_dESaIS3_ENSt8__detail10_Select1stESt8equal_toIS1_ESt4hashIS1_ENS5_18_Mod_range_hashingENS5_20_Default_ranged_hashENS5_20_Prime_rehash_policyENS5_17_Hashtable_traitsILb1ELb0ELb1EEEE19_M_allocate_bucketsEm:
LFB3914:
	pushq	%rbp
LCFI287:
	movq	%rsp, %rbp
LCFI288:
	subq	$16, %rsp
	movq	%rdi, -8(%rbp)
	movq	%rsi, -16(%rbp)
	cmpq	$1, -16(%rbp)
	sete	%al
	movzbl	%al, %eax
	testq	%rax, %rax
	je	L165
	movq	-8(%rbp), %rax
	movq	$0, 48(%rax)
	movq	-8(%rbp), %rax
	addq	$48, %rax
	jmp	L166
L165:
	movq	-16(%rbp), %rdx
	movq	-8(%rbp), %rax
	movq	%rdx, %rsi
	movq	%rax, %rdi
	call	__ZNSt8__detail16_Hashtable_allocISaINS_10_Hash_nodeISt4pairIKS2_IiiEdELb1EEEEE19_M_allocate_bucketsEm
	nop
L166:
	leave
LCFI289:
	ret
LFE3914:
	.align 1,0x90
	.globl __ZN9__gnu_cxx16__aligned_bufferISt4pairIKS1_IiiEdEE7_M_addrEv
	.weak_definition __ZN9__gnu_cxx16__aligned_bufferISt4pairIKS1_IiiEdEE7_M_addrEv
__ZN9__gnu_cxx16__aligned_bufferISt4pairIKS1_IiiEdEE7_M_addrEv:
LFB3931:
	pushq	%rbp
LCFI290:
	movq	%rsp, %rbp
LCFI291:
	movq	%rdi, -8(%rbp)
	movq	-8(%rbp), %rax
	popq	%rbp
LCFI292:
	ret
LFE3931:
	.globl __ZSt9addressofINSt8__detail10_Hash_nodeISt4pairIKS2_IiiEdELb1EEEEPT_RS7_
	.weak_definition __ZSt9addressofINSt8__detail10_Hash_nodeISt4pairIKS2_IiiEdELb1EEEEPT_RS7_
__ZSt9addressofINSt8__detail10_Hash_nodeISt4pairIKS2_IiiEdELb1EEEEPT_RS7_:
LFB3932:
	pushq	%rbp
LCFI293:
	movq	%rsp, %rbp
LCFI294:
	subq	$16, %rsp
	movq	%rdi, -8(%rbp)
	movq	-8(%rbp), %rax
	movq	%rax, %rdi
	call	__ZSt11__addressofINSt8__detail10_Hash_nodeISt4pairIKS2_IiiEdELb1EEEEPT_RS7_
	leave
LCFI295:
	ret
LFE3932:
	.align 1,0x90
	.globl __ZN9__gnu_cxx13new_allocatorINSt8__detail10_Hash_nodeISt4pairIKS3_IiiEdELb1EEEE10deallocateEPS7_m
	.weak_definition __ZN9__gnu_cxx13new_allocatorINSt8__detail10_Hash_nodeISt4pairIKS3_IiiEdELb1EEEE10deallocateEPS7_m
__ZN9__gnu_cxx13new_allocatorINSt8__detail10_Hash_nodeISt4pairIKS3_IiiEdELb1EEEE10deallocateEPS7_m:
LFB3933:
	pushq	%rbp
LCFI296:
	movq	%rsp, %rbp
LCFI297:
	subq	$32, %rsp
	movq	%rdi, -8(%rbp)
	movq	%rsi, -16(%rbp)
	movq	%rdx, -24(%rbp)
	movq	-16(%rbp), %rax
	movq	%rax, %rdi
	call	__ZdlPv
	nop
	leave
LCFI298:
	ret
LFE3933:
	.globl __ZSt11__addressofIPNSt8__detail15_Hash_node_baseEEPT_RS3_
	.weak_definition __ZSt11__addressofIPNSt8__detail15_Hash_node_baseEEPT_RS3_
__ZSt11__addressofIPNSt8__detail15_Hash_node_baseEEPT_RS3_:
LFB3934:
	pushq	%rbp
LCFI299:
	movq	%rsp, %rbp
LCFI300:
	movq	%rdi, -8(%rbp)
	movq	-8(%rbp), %rax
	popq	%rbp
LCFI301:
	ret
LFE3934:
	.align 1,0x90
	.globl __ZNSt8__detail16_Hashtable_allocISaINS_10_Hash_nodeISt4pairIKS2_IiiEdELb1EEEEE19_M_allocate_bucketsEm
	.weak_definition __ZNSt8__detail16_Hashtable_allocISaINS_10_Hash_nodeISt4pairIKS2_IiiEdELb1EEEEE19_M_allocate_bucketsEm
__ZNSt8__detail16_Hashtable_allocISaINS_10_Hash_nodeISt4pairIKS2_IiiEdELb1EEEEE19_M_allocate_bucketsEm:
LFB3935:
	pushq	%rbp
LCFI302:
	movq	%rsp, %rbp
LCFI303:
	pushq	%rbx
	subq	$56, %rsp
LCFI304:
	movq	%rdi, -56(%rbp)
	movq	%rsi, -64(%rbp)
	movq	-56(%rbp), %rax
	movq	%rax, %rdi
	call	__ZNSt8__detail16_Hashtable_allocISaINS_10_Hash_nodeISt4pairIKS2_IiiEdELb1EEEEE17_M_node_allocatorEv
	movq	%rax, %rdx
	leaq	-33(%rbp), %rax
	movq	%rdx, %rsi
	movq	%rax, %rdi
	call	__ZNSaIPNSt8__detail15_Hash_node_baseEEC1INS_10_Hash_nodeISt4pairIKS5_IiiEdELb1EEEEERKSaIT_E
	movq	-64(%rbp), %rdx
	leaq	-33(%rbp), %rax
	movq	%rdx, %rsi
	movq	%rax, %rdi
LEHB11:
	call	__ZNSt16allocator_traitsISaIPNSt8__detail15_Hash_node_baseEEE8allocateERS3_m
LEHE11:
	movq	%rax, -24(%rbp)
	movq	-24(%rbp), %rax
	movq	%rax, %rdi
	call	__ZSt12__to_addressIPNSt8__detail15_Hash_node_baseEEPT_S4_
	movq	%rax, -32(%rbp)
	movq	-64(%rbp), %rax
	salq	$3, %rax
	movq	-32(%rbp), %rdx
	movq	%rdx, %rcx
	movq	%rax, %rdx
	movl	$0, %esi
	movq	%rcx, %rdi
	call	_memset
	movq	-32(%rbp), %rbx
	leaq	-33(%rbp), %rax
	movq	%rax, %rdi
	call	__ZNSaIPNSt8__detail15_Hash_node_baseEED1Ev
	movq	%rbx, %rax
	jmp	L178
L177:
	movq	%rax, %rbx
	leaq	-33(%rbp), %rax
	movq	%rax, %rdi
	call	__ZNSaIPNSt8__detail15_Hash_node_baseEED1Ev
	movq	%rbx, %rax
	movq	%rax, %rdi
LEHB12:
	call	__Unwind_Resume
LEHE12:
L178:
	addq	$56, %rsp
	popq	%rbx
	popq	%rbp
LCFI305:
	ret
LFE3935:
	.section __DATA,__gcc_except_tab
GCC_except_table11:
LLSDA3935:
	.byte	0xff
	.byte	0xff
	.byte	0x3
	.byte	0x1a
	.set L$set$27,LEHB11-LFB3935
	.long L$set$27
	.set L$set$28,LEHE11-LEHB11
	.long L$set$28
	.set L$set$29,L177-LFB3935
	.long L$set$29
	.byte	0
	.set L$set$30,LEHB12-LFB3935
	.long L$set$30
	.set L$set$31,LEHE12-LEHB12
	.long L$set$31
	.long	0
	.byte	0
	.text
	.globl __ZSt11__addressofINSt8__detail10_Hash_nodeISt4pairIKS2_IiiEdELb1EEEEPT_RS7_
	.weak_definition __ZSt11__addressofINSt8__detail10_Hash_nodeISt4pairIKS2_IiiEdELb1EEEEPT_RS7_
__ZSt11__addressofINSt8__detail10_Hash_nodeISt4pairIKS2_IiiEdELb1EEEEPT_RS7_:
LFB3942:
	pushq	%rbp
LCFI306:
	movq	%rsp, %rbp
LCFI307:
	movq	%rdi, -8(%rbp)
	movq	-8(%rbp), %rax
	popq	%rbp
LCFI308:
	ret
LFE3942:
	.globl __ZNSt16allocator_traitsISaIPNSt8__detail15_Hash_node_baseEEE8allocateERS3_m
	.weak_definition __ZNSt16allocator_traitsISaIPNSt8__detail15_Hash_node_baseEEE8allocateERS3_m
__ZNSt16allocator_traitsISaIPNSt8__detail15_Hash_node_baseEEE8allocateERS3_m:
LFB3943:
	pushq	%rbp
LCFI309:
	movq	%rsp, %rbp
LCFI310:
	subq	$16, %rsp
	movq	%rdi, -8(%rbp)
	movq	%rsi, -16(%rbp)
	movq	-16(%rbp), %rcx
	movq	-8(%rbp), %rax
	movl	$0, %edx
	movq	%rcx, %rsi
	movq	%rax, %rdi
	call	__ZN9__gnu_cxx13new_allocatorIPNSt8__detail15_Hash_node_baseEE8allocateEmPKv
	leave
LCFI311:
	ret
LFE3943:
	.globl __ZSt12__to_addressIPNSt8__detail15_Hash_node_baseEEPT_S4_
	.weak_definition __ZSt12__to_addressIPNSt8__detail15_Hash_node_baseEEPT_S4_
__ZSt12__to_addressIPNSt8__detail15_Hash_node_baseEEPT_S4_:
LFB3944:
	pushq	%rbp
LCFI312:
	movq	%rsp, %rbp
LCFI313:
	movq	%rdi, -8(%rbp)
	movq	-8(%rbp), %rax
	popq	%rbp
LCFI314:
	ret
LFE3944:
	.align 1,0x90
	.globl __ZN9__gnu_cxx13new_allocatorIPNSt8__detail15_Hash_node_baseEE8allocateEmPKv
	.weak_definition __ZN9__gnu_cxx13new_allocatorIPNSt8__detail15_Hash_node_baseEE8allocateEmPKv
__ZN9__gnu_cxx13new_allocatorIPNSt8__detail15_Hash_node_baseEE8allocateEmPKv:
LFB3947:
	pushq	%rbp
LCFI315:
	movq	%rsp, %rbp
LCFI316:
	subq	$32, %rsp
	movq	%rdi, -8(%rbp)
	movq	%rsi, -16(%rbp)
	movq	%rdx, -24(%rbp)
	movq	-8(%rbp), %rax
	movq	%rax, %rdi
	call	__ZNK9__gnu_cxx13new_allocatorIPNSt8__detail15_Hash_node_baseEE8max_sizeEv
	cmpq	%rax, -16(%rbp)
	seta	%al
	testb	%al, %al
	je	L186
	call	__ZSt17__throw_bad_allocv
L186:
	movq	-16(%rbp), %rax
	salq	$3, %rax
	movq	%rax, %rdi
	call	__Znwm
	leave
LCFI317:
	ret
LFE3947:
	.align 1,0x90
	.globl __ZNK9__gnu_cxx13new_allocatorIPNSt8__detail15_Hash_node_baseEE8max_sizeEv
	.weak_definition __ZNK9__gnu_cxx13new_allocatorIPNSt8__detail15_Hash_node_baseEE8max_sizeEv
__ZNK9__gnu_cxx13new_allocatorIPNSt8__detail15_Hash_node_baseEE8max_sizeEv:
LFB3948:
	pushq	%rbp
LCFI318:
	movq	%rsp, %rbp
LCFI319:
	movq	%rdi, -8(%rbp)
	movabsq	$1152921504606846975, %rax
	popq	%rbp
LCFI320:
	ret
LFE3948:
__Z41__static_initialization_and_destruction_0ii:
LFB3949:
	pushq	%rbp
LCFI321:
	movq	%rsp, %rbp
LCFI322:
	subq	$16, %rsp
	movl	%edi, -4(%rbp)
	movl	%esi, -8(%rbp)
	cmpl	$1, -4(%rbp)
	jne	L192
	cmpl	$65535, -8(%rbp)
	jne	L192
	leaq	__ZStL8__ioinit(%rip), %rdi
	call	__ZNSt8ios_base4InitC1Ev
	leaq	___dso_handle(%rip), %rdx
	leaq	__ZStL8__ioinit(%rip), %rsi
	movq	__ZNSt8ios_base4InitD1Ev@GOTPCREL(%rip), %rax
	movq	%rax, %rdi
	call	___cxa_atexit
L192:
	nop
	leave
LCFI323:
	ret
LFE3949:
__GLOBAL__sub_I_main.cpp:
LFB3950:
	pushq	%rbp
LCFI324:
	movq	%rsp, %rbp
LCFI325:
	movl	$65535, %esi
	movl	$1, %edi
	call	__Z41__static_initialization_and_destruction_0ii
	popq	%rbp
LCFI326:
	ret
LFE3950:
	.literal16
	.align 4
lC0:
	.long	0
	.long	2147483648
	.long	16447
	.long	0
	.literal8
	.align 3
lC1:
	.long	0
	.long	1127219200
	.literal16
	.align 4
lC2:
	.long	4294967295
	.long	2147483647
	.long	0
	.long	0
	.literal8
	.align 3
lC3:
	.long	0
	.long	1072693248
	.align 3
lC4:
	.long	0
	.long	1138753536
	.literal4
	.align 2
lC6:
	.long	1065353216
	.literal8
	.align 3
lC7:
	.long	0
	.long	1076101120
	.section __TEXT,__eh_frame,coalesced,no_toc+strip_static_syms+live_support
EH_frame1:
	.set L$set$32,LECIE1-LSCIE1
	.long L$set$32
LSCIE1:
	.long	0
	.byte	0x1
	.ascii "zPLR\0"
	.byte	0x1
	.byte	0x78
	.byte	0x10
	.byte	0x7
	.byte	0x9b
	.long	___gxx_personality_v0+4@GOTPCREL
	.byte	0x10
	.byte	0x10
	.byte	0xc
	.byte	0x7
	.byte	0x8
	.byte	0x90
	.byte	0x1
	.align 3
LECIE1:
LSFDE1:
	.set L$set$33,LEFDE1-LASFDE1
	.long L$set$33
LASFDE1:
	.long	LASFDE1-EH_frame1
	.quad	LFB2392-.
	.set L$set$34,LFE2392-LFB2392
	.quad L$set$34
	.byte	0x8
	.quad	0
	.byte	0x4
	.set L$set$35,LCFI0-LFB2392
	.long L$set$35
	.byte	0xe
	.byte	0x10
	.byte	0x86
	.byte	0x2
	.byte	0x4
	.set L$set$36,LCFI1-LCFI0
	.long L$set$36
	.byte	0xd
	.byte	0x6
	.byte	0x4
	.set L$set$37,LCFI2-LCFI1
	.long L$set$37
	.byte	0xc
	.byte	0x7
	.byte	0x8
	.align 3
LEFDE1:
LSFDE3:
	.set L$set$38,LEFDE3-LASFDE3
	.long L$set$38
LASFDE3:
	.long	LASFDE3-EH_frame1
	.quad	LFB2419-.
	.set L$set$39,LFE2419-LFB2419
	.quad L$set$39
	.byte	0x8
	.quad	0
	.byte	0x4
	.set L$set$40,LCFI3-LFB2419
	.long L$set$40
	.byte	0xe
	.byte	0x10
	.byte	0x86
	.byte	0x2
	.byte	0x4
	.set L$set$41,LCFI4-LCFI3
	.long L$set$41
	.byte	0xd
	.byte	0x6
	.byte	0x4
	.set L$set$42,LCFI5-LCFI4
	.long L$set$42
	.byte	0xc
	.byte	0x7
	.byte	0x8
	.align 3
LEFDE3:
LSFDE5:
	.set L$set$43,LEFDE5-LASFDE5
	.long L$set$43
LASFDE5:
	.long	LASFDE5-EH_frame1
	.quad	LFB2422-.
	.set L$set$44,LFE2422-LFB2422
	.quad L$set$44
	.byte	0x8
	.quad	0
	.byte	0x4
	.set L$set$45,LCFI6-LFB2422
	.long L$set$45
	.byte	0xe
	.byte	0x10
	.byte	0x86
	.byte	0x2
	.byte	0x4
	.set L$set$46,LCFI7-LCFI6
	.long L$set$46
	.byte	0xd
	.byte	0x6
	.byte	0x4
	.set L$set$47,LCFI8-LCFI7
	.long L$set$47
	.byte	0xc
	.byte	0x7
	.byte	0x8
	.align 3
LEFDE5:
LSFDE7:
	.set L$set$48,LEFDE7-LASFDE7
	.long L$set$48
LASFDE7:
	.long	LASFDE7-EH_frame1
	.quad	LFB2423-.
	.set L$set$49,LFE2423-LFB2423
	.quad L$set$49
	.byte	0x8
	.quad	0
	.byte	0x4
	.set L$set$50,LCFI9-LFB2423
	.long L$set$50
	.byte	0xe
	.byte	0x10
	.byte	0x86
	.byte	0x2
	.byte	0x4
	.set L$set$51,LCFI10-LCFI9
	.long L$set$51
	.byte	0xd
	.byte	0x6
	.byte	0x4
	.set L$set$52,LCFI11-LCFI10
	.long L$set$52
	.byte	0xc
	.byte	0x7
	.byte	0x8
	.align 3
LEFDE7:
LSFDE9:
	.set L$set$53,LEFDE9-LASFDE9
	.long L$set$53
LASFDE9:
	.long	LASFDE9-EH_frame1
	.quad	LFB2424-.
	.set L$set$54,LFE2424-LFB2424
	.quad L$set$54
	.byte	0x8
	.quad	0
	.byte	0x4
	.set L$set$55,LCFI12-LFB2424
	.long L$set$55
	.byte	0xe
	.byte	0x10
	.byte	0x86
	.byte	0x2
	.byte	0x4
	.set L$set$56,LCFI13-LCFI12
	.long L$set$56
	.byte	0xd
	.byte	0x6
	.byte	0x4
	.set L$set$57,LCFI14-LCFI13
	.long L$set$57
	.byte	0xc
	.byte	0x7
	.byte	0x8
	.align 3
LEFDE9:
LSFDE11:
	.set L$set$58,LEFDE11-LASFDE11
	.long L$set$58
LASFDE11:
	.long	LASFDE11-EH_frame1
	.quad	LFB2425-.
	.set L$set$59,LFE2425-LFB2425
	.quad L$set$59
	.byte	0x8
	.quad	0
	.byte	0x4
	.set L$set$60,LCFI15-LFB2425
	.long L$set$60
	.byte	0xe
	.byte	0x10
	.byte	0x86
	.byte	0x2
	.byte	0x4
	.set L$set$61,LCFI16-LCFI15
	.long L$set$61
	.byte	0xd
	.byte	0x6
	.byte	0x4
	.set L$set$62,LCFI17-LCFI16
	.long L$set$62
	.byte	0xc
	.byte	0x7
	.byte	0x8
	.align 3
LEFDE11:
LSFDE13:
	.set L$set$63,LEFDE13-LASFDE13
	.long L$set$63
LASFDE13:
	.long	LASFDE13-EH_frame1
	.quad	LFB2427-.
	.set L$set$64,LFE2427-LFB2427
	.quad L$set$64
	.byte	0x8
	.quad	0
	.byte	0x4
	.set L$set$65,LCFI18-LFB2427
	.long L$set$65
	.byte	0xe
	.byte	0x10
	.byte	0x86
	.byte	0x2
	.byte	0x4
	.set L$set$66,LCFI19-LCFI18
	.long L$set$66
	.byte	0xd
	.byte	0x6
	.byte	0x4
	.set L$set$67,LCFI20-LCFI19
	.long L$set$67
	.byte	0xc
	.byte	0x7
	.byte	0x8
	.align 3
LEFDE13:
LSFDE15:
	.set L$set$68,LEFDE15-LASFDE15
	.long L$set$68
LASFDE15:
	.long	LASFDE15-EH_frame1
	.quad	LFB3133-.
	.set L$set$69,LFE3133-LFB3133
	.quad L$set$69
	.byte	0x8
	.quad	0
	.byte	0x4
	.set L$set$70,LCFI21-LFB3133
	.long L$set$70
	.byte	0xe
	.byte	0x10
	.byte	0x86
	.byte	0x2
	.byte	0x4
	.set L$set$71,LCFI22-LCFI21
	.long L$set$71
	.byte	0xd
	.byte	0x6
	.byte	0x4
	.set L$set$72,LCFI23-LCFI22
	.long L$set$72
	.byte	0xc
	.byte	0x7
	.byte	0x8
	.align 3
LEFDE15:
LSFDE17:
	.set L$set$73,LEFDE17-LASFDE17
	.long L$set$73
LASFDE17:
	.long	LASFDE17-EH_frame1
	.quad	LFB3143-.
	.set L$set$74,LFE3143-LFB3143
	.quad L$set$74
	.byte	0x8
	.quad	0
	.byte	0x4
	.set L$set$75,LCFI24-LFB3143
	.long L$set$75
	.byte	0xe
	.byte	0x10
	.byte	0x86
	.byte	0x2
	.byte	0x4
	.set L$set$76,LCFI25-LCFI24
	.long L$set$76
	.byte	0xd
	.byte	0x6
	.byte	0x4
	.set L$set$77,LCFI26-LCFI25
	.long L$set$77
	.byte	0xc
	.byte	0x7
	.byte	0x8
	.align 3
LEFDE17:
LSFDE19:
	.set L$set$78,LEFDE19-LASFDE19
	.long L$set$78
LASFDE19:
	.long	LASFDE19-EH_frame1
	.quad	LFB3155-.
	.set L$set$79,LFE3155-LFB3155
	.quad L$set$79
	.byte	0x8
	.quad	0
	.byte	0x4
	.set L$set$80,LCFI27-LFB3155
	.long L$set$80
	.byte	0xe
	.byte	0x10
	.byte	0x86
	.byte	0x2
	.byte	0x4
	.set L$set$81,LCFI28-LCFI27
	.long L$set$81
	.byte	0xd
	.byte	0x6
	.byte	0x4
	.set L$set$82,LCFI29-LCFI28
	.long L$set$82
	.byte	0xc
	.byte	0x7
	.byte	0x8
	.align 3
LEFDE19:
LSFDE21:
	.set L$set$83,LEFDE21-LASFDE21
	.long L$set$83
LASFDE21:
	.long	LASFDE21-EH_frame1
	.quad	LFB3164-.
	.set L$set$84,LFE3164-LFB3164
	.quad L$set$84
	.byte	0x8
	.quad	0
	.byte	0x4
	.set L$set$85,LCFI30-LFB3164
	.long L$set$85
	.byte	0xe
	.byte	0x10
	.byte	0x86
	.byte	0x2
	.byte	0x4
	.set L$set$86,LCFI31-LCFI30
	.long L$set$86
	.byte	0xd
	.byte	0x6
	.byte	0x4
	.set L$set$87,LCFI32-LCFI31
	.long L$set$87
	.byte	0xc
	.byte	0x7
	.byte	0x8
	.align 3
LEFDE21:
LSFDE23:
	.set L$set$88,LEFDE23-LASFDE23
	.long L$set$88
LASFDE23:
	.long	LASFDE23-EH_frame1
	.quad	LFB3165-.
	.set L$set$89,LFE3165-LFB3165
	.quad L$set$89
	.byte	0x8
	.quad	0
	.byte	0x4
	.set L$set$90,LCFI33-LFB3165
	.long L$set$90
	.byte	0xe
	.byte	0x10
	.byte	0x86
	.byte	0x2
	.byte	0x4
	.set L$set$91,LCFI34-LCFI33
	.long L$set$91
	.byte	0xd
	.byte	0x6
	.byte	0x4
	.set L$set$92,LCFI35-LCFI34
	.long L$set$92
	.byte	0xc
	.byte	0x7
	.byte	0x8
	.align 3
LEFDE23:
LSFDE25:
	.set L$set$93,LEFDE25-LASFDE25
	.long L$set$93
LASFDE25:
	.long	LASFDE25-EH_frame1
	.quad	LFB3168-.
	.set L$set$94,LFE3168-LFB3168
	.quad L$set$94
	.byte	0x8
	.quad	0
	.byte	0x4
	.set L$set$95,LCFI36-LFB3168
	.long L$set$95
	.byte	0xe
	.byte	0x10
	.byte	0x86
	.byte	0x2
	.byte	0x4
	.set L$set$96,LCFI37-LCFI36
	.long L$set$96
	.byte	0xd
	.byte	0x6
	.byte	0x4
	.set L$set$97,LCFI38-LCFI37
	.long L$set$97
	.byte	0xc
	.byte	0x7
	.byte	0x8
	.align 3
LEFDE25:
LSFDE27:
	.set L$set$98,LEFDE27-LASFDE27
	.long L$set$98
LASFDE27:
	.long	LASFDE27-EH_frame1
	.quad	LFB3173-.
	.set L$set$99,LFE3173-LFB3173
	.quad L$set$99
	.byte	0x8
	.quad	0
	.byte	0x4
	.set L$set$100,LCFI39-LFB3173
	.long L$set$100
	.byte	0xe
	.byte	0x10
	.byte	0x86
	.byte	0x2
	.byte	0x4
	.set L$set$101,LCFI40-LCFI39
	.long L$set$101
	.byte	0xd
	.byte	0x6
	.byte	0x4
	.set L$set$102,LCFI41-LCFI40
	.long L$set$102
	.byte	0xc
	.byte	0x7
	.byte	0x8
	.align 3
LEFDE27:
LSFDE29:
	.set L$set$103,LEFDE29-LASFDE29
	.long L$set$103
LASFDE29:
	.long	LASFDE29-EH_frame1
	.quad	LFB3176-.
	.set L$set$104,LFE3176-LFB3176
	.quad L$set$104
	.byte	0x8
	.quad	0
	.byte	0x4
	.set L$set$105,LCFI42-LFB3176
	.long L$set$105
	.byte	0xe
	.byte	0x10
	.byte	0x86
	.byte	0x2
	.byte	0x4
	.set L$set$106,LCFI43-LCFI42
	.long L$set$106
	.byte	0xd
	.byte	0x6
	.byte	0x4
	.set L$set$107,LCFI44-LCFI43
	.long L$set$107
	.byte	0xc
	.byte	0x7
	.byte	0x8
	.align 3
LEFDE29:
LSFDE31:
	.set L$set$108,LEFDE31-LASFDE31
	.long L$set$108
LASFDE31:
	.long	LASFDE31-EH_frame1
	.quad	LFB3178-.
	.set L$set$109,LFE3178-LFB3178
	.quad L$set$109
	.byte	0x8
	.quad	0
	.byte	0x4
	.set L$set$110,LCFI45-LFB3178
	.long L$set$110
	.byte	0xe
	.byte	0x10
	.byte	0x86
	.byte	0x2
	.byte	0x4
	.set L$set$111,LCFI46-LCFI45
	.long L$set$111
	.byte	0xd
	.byte	0x6
	.byte	0x4
	.set L$set$112,LCFI47-LCFI46
	.long L$set$112
	.byte	0xc
	.byte	0x7
	.byte	0x8
	.align 3
LEFDE31:
LSFDE33:
	.set L$set$113,LEFDE33-LASFDE33
	.long L$set$113
LASFDE33:
	.long	LASFDE33-EH_frame1
	.quad	LFB3181-.
	.set L$set$114,LFE3181-LFB3181
	.quad L$set$114
	.byte	0x8
	.quad	0
	.byte	0x4
	.set L$set$115,LCFI48-LFB3181
	.long L$set$115
	.byte	0xe
	.byte	0x10
	.byte	0x86
	.byte	0x2
	.byte	0x4
	.set L$set$116,LCFI49-LCFI48
	.long L$set$116
	.byte	0xd
	.byte	0x6
	.byte	0x4
	.set L$set$117,LCFI50-LCFI49
	.long L$set$117
	.byte	0xc
	.byte	0x7
	.byte	0x8
	.align 3
LEFDE33:
LSFDE35:
	.set L$set$118,LEFDE35-LASFDE35
	.long L$set$118
LASFDE35:
	.long	LASFDE35-EH_frame1
	.quad	LFB3184-.
	.set L$set$119,LFE3184-LFB3184
	.quad L$set$119
	.byte	0x8
	.quad	0
	.byte	0x4
	.set L$set$120,LCFI51-LFB3184
	.long L$set$120
	.byte	0xe
	.byte	0x10
	.byte	0x86
	.byte	0x2
	.byte	0x4
	.set L$set$121,LCFI52-LCFI51
	.long L$set$121
	.byte	0xd
	.byte	0x6
	.byte	0x4
	.set L$set$122,LCFI53-LCFI52
	.long L$set$122
	.byte	0xc
	.byte	0x7
	.byte	0x8
	.align 3
LEFDE35:
LSFDE37:
	.set L$set$123,LEFDE37-LASFDE37
	.long L$set$123
LASFDE37:
	.long	LASFDE37-EH_frame1
	.quad	LFB3186-.
	.set L$set$124,LFE3186-LFB3186
	.quad L$set$124
	.byte	0x8
	.quad	0
	.byte	0x4
	.set L$set$125,LCFI54-LFB3186
	.long L$set$125
	.byte	0xe
	.byte	0x10
	.byte	0x86
	.byte	0x2
	.byte	0x4
	.set L$set$126,LCFI55-LCFI54
	.long L$set$126
	.byte	0xd
	.byte	0x6
	.byte	0x4
	.set L$set$127,LCFI56-LCFI55
	.long L$set$127
	.byte	0xc
	.byte	0x7
	.byte	0x8
	.align 3
LEFDE37:
LSFDE39:
	.set L$set$128,LEFDE39-LASFDE39
	.long L$set$128
LASFDE39:
	.long	LASFDE39-EH_frame1
	.quad	LFB3189-.
	.set L$set$129,LFE3189-LFB3189
	.quad L$set$129
	.byte	0x8
	.quad	0
	.byte	0x4
	.set L$set$130,LCFI57-LFB3189
	.long L$set$130
	.byte	0xe
	.byte	0x10
	.byte	0x86
	.byte	0x2
	.byte	0x4
	.set L$set$131,LCFI58-LCFI57
	.long L$set$131
	.byte	0xd
	.byte	0x6
	.byte	0x4
	.set L$set$132,LCFI59-LCFI58
	.long L$set$132
	.byte	0xc
	.byte	0x7
	.byte	0x8
	.align 3
LEFDE39:
LSFDE41:
	.set L$set$133,LEFDE41-LASFDE41
	.long L$set$133
LASFDE41:
	.long	LASFDE41-EH_frame1
	.quad	LFB3191-.
	.set L$set$134,LFE3191-LFB3191
	.quad L$set$134
	.byte	0x8
	.quad	LLSDA3191-.
	.byte	0x4
	.set L$set$135,LCFI60-LFB3191
	.long L$set$135
	.byte	0xe
	.byte	0x10
	.byte	0x86
	.byte	0x2
	.byte	0x4
	.set L$set$136,LCFI61-LCFI60
	.long L$set$136
	.byte	0xd
	.byte	0x6
	.byte	0x4
	.set L$set$137,LCFI62-LCFI61
	.long L$set$137
	.byte	0x83
	.byte	0x3
	.byte	0x4
	.set L$set$138,LCFI63-LCFI62
	.long L$set$138
	.byte	0xc
	.byte	0x7
	.byte	0x8
	.align 3
LEFDE41:
LSFDE43:
	.set L$set$139,LEFDE43-LASFDE43
	.long L$set$139
LASFDE43:
	.long	LASFDE43-EH_frame1
	.quad	LFB3195-.
	.set L$set$140,LFE3195-LFB3195
	.quad L$set$140
	.byte	0x8
	.quad	0
	.byte	0x4
	.set L$set$141,LCFI64-LFB3195
	.long L$set$141
	.byte	0xe
	.byte	0x10
	.byte	0x86
	.byte	0x2
	.byte	0x4
	.set L$set$142,LCFI65-LCFI64
	.long L$set$142
	.byte	0xd
	.byte	0x6
	.byte	0x4
	.set L$set$143,LCFI66-LCFI65
	.long L$set$143
	.byte	0xc
	.byte	0x7
	.byte	0x8
	.align 3
LEFDE43:
LSFDE45:
	.set L$set$144,LEFDE45-LASFDE45
	.long L$set$144
LASFDE45:
	.long	LASFDE45-EH_frame1
	.quad	LFB3192-.
	.set L$set$145,LFE3192-LFB3192
	.quad L$set$145
	.byte	0x8
	.quad	LLSDA3192-.
	.byte	0x4
	.set L$set$146,LCFI67-LFB3192
	.long L$set$146
	.byte	0xe
	.byte	0x10
	.byte	0x86
	.byte	0x2
	.byte	0x4
	.set L$set$147,LCFI68-LCFI67
	.long L$set$147
	.byte	0xd
	.byte	0x6
	.byte	0x4
	.set L$set$148,LCFI69-LCFI68
	.long L$set$148
	.byte	0x83
	.byte	0x3
	.byte	0x4
	.set L$set$149,LCFI70-LCFI69
	.long L$set$149
	.byte	0xc
	.byte	0x7
	.byte	0x8
	.align 3
LEFDE45:
LSFDE47:
	.set L$set$150,LEFDE47-LASFDE47
	.long L$set$150
LASFDE47:
	.long	LASFDE47-EH_frame1
	.quad	LFB3444-.
	.set L$set$151,LFE3444-LFB3444
	.quad L$set$151
	.byte	0x8
	.quad	0
	.byte	0x4
	.set L$set$152,LCFI71-LFB3444
	.long L$set$152
	.byte	0xe
	.byte	0x10
	.byte	0x86
	.byte	0x2
	.byte	0x4
	.set L$set$153,LCFI72-LCFI71
	.long L$set$153
	.byte	0xd
	.byte	0x6
	.byte	0x4
	.set L$set$154,LCFI73-LCFI72
	.long L$set$154
	.byte	0xc
	.byte	0x7
	.byte	0x8
	.align 3
LEFDE47:
LSFDE49:
	.set L$set$155,LEFDE49-LASFDE49
	.long L$set$155
LASFDE49:
	.long	LASFDE49-EH_frame1
	.quad	LFB3475-.
	.set L$set$156,LFE3475-LFB3475
	.quad L$set$156
	.byte	0x8
	.quad	0
	.byte	0x4
	.set L$set$157,LCFI74-LFB3475
	.long L$set$157
	.byte	0xe
	.byte	0x10
	.byte	0x86
	.byte	0x2
	.byte	0x4
	.set L$set$158,LCFI75-LCFI74
	.long L$set$158
	.byte	0xd
	.byte	0x6
	.byte	0x4
	.set L$set$159,LCFI76-LCFI75
	.long L$set$159
	.byte	0xc
	.byte	0x7
	.byte	0x8
	.align 3
LEFDE49:
LSFDE51:
	.set L$set$160,LEFDE51-LASFDE51
	.long L$set$160
LASFDE51:
	.long	LASFDE51-EH_frame1
	.quad	LFB3478-.
	.set L$set$161,LFE3478-LFB3478
	.quad L$set$161
	.byte	0x8
	.quad	LLSDA3478-.
	.byte	0x4
	.set L$set$162,LCFI77-LFB3478
	.long L$set$162
	.byte	0xe
	.byte	0x10
	.byte	0x86
	.byte	0x2
	.byte	0x4
	.set L$set$163,LCFI78-LCFI77
	.long L$set$163
	.byte	0xd
	.byte	0x6
	.byte	0x4
	.set L$set$164,LCFI79-LCFI78
	.long L$set$164
	.byte	0xc
	.byte	0x7
	.byte	0x8
	.align 3
LEFDE51:
LSFDE53:
	.set L$set$165,LEFDE53-LASFDE53
	.long L$set$165
LASFDE53:
	.long	LASFDE53-EH_frame1
	.quad	LFB3482-.
	.set L$set$166,LFE3482-LFB3482
	.quad L$set$166
	.byte	0x8
	.quad	LLSDA3482-.
	.byte	0x4
	.set L$set$167,LCFI80-LFB3482
	.long L$set$167
	.byte	0xe
	.byte	0x10
	.byte	0x86
	.byte	0x2
	.byte	0x4
	.set L$set$168,LCFI81-LCFI80
	.long L$set$168
	.byte	0xd
	.byte	0x6
	.byte	0x4
	.set L$set$169,LCFI82-LCFI81
	.long L$set$169
	.byte	0xc
	.byte	0x7
	.byte	0x8
	.align 3
LEFDE53:
LSFDE55:
	.set L$set$170,LEFDE55-LASFDE55
	.long L$set$170
LASFDE55:
	.long	LASFDE55-EH_frame1
	.quad	LFB3489-.
	.set L$set$171,LFE3489-LFB3489
	.quad L$set$171
	.byte	0x8
	.quad	0
	.byte	0x4
	.set L$set$172,LCFI83-LFB3489
	.long L$set$172
	.byte	0xe
	.byte	0x10
	.byte	0x86
	.byte	0x2
	.byte	0x4
	.set L$set$173,LCFI84-LCFI83
	.long L$set$173
	.byte	0xd
	.byte	0x6
	.byte	0x4
	.set L$set$174,LCFI85-LCFI84
	.long L$set$174
	.byte	0xc
	.byte	0x7
	.byte	0x8
	.align 3
LEFDE55:
LSFDE57:
	.set L$set$175,LEFDE57-LASFDE57
	.long L$set$175
LASFDE57:
	.long	LASFDE57-EH_frame1
	.quad	LFB3491-.
	.set L$set$176,LFE3491-LFB3491
	.quad L$set$176
	.byte	0x8
	.quad	0
	.byte	0x4
	.set L$set$177,LCFI86-LFB3491
	.long L$set$177
	.byte	0xe
	.byte	0x10
	.byte	0x86
	.byte	0x2
	.byte	0x4
	.set L$set$178,LCFI87-LCFI86
	.long L$set$178
	.byte	0xd
	.byte	0x6
	.byte	0x4
	.set L$set$179,LCFI88-LCFI87
	.long L$set$179
	.byte	0xc
	.byte	0x7
	.byte	0x8
	.align 3
LEFDE57:
LSFDE59:
	.set L$set$180,LEFDE59-LASFDE59
	.long L$set$180
LASFDE59:
	.long	LASFDE59-EH_frame1
	.quad	LFB3494-.
	.set L$set$181,LFE3494-LFB3494
	.quad L$set$181
	.byte	0x8
	.quad	LLSDA3494-.
	.byte	0x4
	.set L$set$182,LCFI89-LFB3494
	.long L$set$182
	.byte	0xe
	.byte	0x10
	.byte	0x86
	.byte	0x2
	.byte	0x4
	.set L$set$183,LCFI90-LCFI89
	.long L$set$183
	.byte	0xd
	.byte	0x6
	.byte	0x4
	.set L$set$184,LCFI91-LCFI90
	.long L$set$184
	.byte	0xc
	.byte	0x7
	.byte	0x8
	.align 3
LEFDE59:
LSFDE61:
	.set L$set$185,LEFDE61-LASFDE61
	.long L$set$185
LASFDE61:
	.long	LASFDE61-EH_frame1
	.quad	LFB3498-.
	.set L$set$186,LFE3498-LFB3498
	.quad L$set$186
	.byte	0x8
	.quad	LLSDA3498-.
	.byte	0x4
	.set L$set$187,LCFI92-LFB3498
	.long L$set$187
	.byte	0xe
	.byte	0x10
	.byte	0x86
	.byte	0x2
	.byte	0x4
	.set L$set$188,LCFI93-LCFI92
	.long L$set$188
	.byte	0xd
	.byte	0x6
	.byte	0x4
	.set L$set$189,LCFI94-LCFI93
	.long L$set$189
	.byte	0xc
	.byte	0x7
	.byte	0x8
	.align 3
LEFDE61:
LSFDE63:
	.set L$set$190,LEFDE63-LASFDE63
	.long L$set$190
LASFDE63:
	.long	LASFDE63-EH_frame1
	.quad	LFB3500-.
	.set L$set$191,LFE3500-LFB3500
	.quad L$set$191
	.byte	0x8
	.quad	0
	.byte	0x4
	.set L$set$192,LCFI95-LFB3500
	.long L$set$192
	.byte	0xe
	.byte	0x10
	.byte	0x86
	.byte	0x2
	.byte	0x4
	.set L$set$193,LCFI96-LCFI95
	.long L$set$193
	.byte	0xd
	.byte	0x6
	.byte	0x4
	.set L$set$194,LCFI97-LCFI96
	.long L$set$194
	.byte	0xc
	.byte	0x7
	.byte	0x8
	.align 3
LEFDE63:
LSFDE65:
	.set L$set$195,LEFDE65-LASFDE65
	.long L$set$195
LASFDE65:
	.long	LASFDE65-EH_frame1
	.quad	LFB3503-.
	.set L$set$196,LFE3503-LFB3503
	.quad L$set$196
	.byte	0x8
	.quad	0
	.byte	0x4
	.set L$set$197,LCFI98-LFB3503
	.long L$set$197
	.byte	0xe
	.byte	0x10
	.byte	0x86
	.byte	0x2
	.byte	0x4
	.set L$set$198,LCFI99-LCFI98
	.long L$set$198
	.byte	0xd
	.byte	0x6
	.byte	0x4
	.set L$set$199,LCFI100-LCFI99
	.long L$set$199
	.byte	0xc
	.byte	0x7
	.byte	0x8
	.align 3
LEFDE65:
LSFDE67:
	.set L$set$200,LEFDE67-LASFDE67
	.long L$set$200
LASFDE67:
	.long	LASFDE67-EH_frame1
	.quad	LFB3507-.
	.set L$set$201,LFE3507-LFB3507
	.quad L$set$201
	.byte	0x8
	.quad	LLSDA3507-.
	.byte	0x4
	.set L$set$202,LCFI101-LFB3507
	.long L$set$202
	.byte	0xe
	.byte	0x10
	.byte	0x86
	.byte	0x2
	.byte	0x4
	.set L$set$203,LCFI102-LCFI101
	.long L$set$203
	.byte	0xd
	.byte	0x6
	.byte	0x4
	.set L$set$204,LCFI103-LCFI102
	.long L$set$204
	.byte	0xc
	.byte	0x7
	.byte	0x8
	.align 3
LEFDE67:
LSFDE69:
	.set L$set$205,LEFDE69-LASFDE69
	.long L$set$205
LASFDE69:
	.long	LASFDE69-EH_frame1
	.quad	LFB3508-.
	.set L$set$206,LFE3508-LFB3508
	.quad L$set$206
	.byte	0x8
	.quad	0
	.byte	0x4
	.set L$set$207,LCFI104-LFB3508
	.long L$set$207
	.byte	0xe
	.byte	0x10
	.byte	0x86
	.byte	0x2
	.byte	0x4
	.set L$set$208,LCFI105-LCFI104
	.long L$set$208
	.byte	0xd
	.byte	0x6
	.byte	0x4
	.set L$set$209,LCFI106-LCFI105
	.long L$set$209
	.byte	0xc
	.byte	0x7
	.byte	0x8
	.align 3
LEFDE69:
LSFDE71:
	.set L$set$210,LEFDE71-LASFDE71
	.long L$set$210
LASFDE71:
	.long	LASFDE71-EH_frame1
	.quad	LFB3644-.
	.set L$set$211,LFE3644-LFB3644
	.quad L$set$211
	.byte	0x8
	.quad	0
	.byte	0x4
	.set L$set$212,LCFI107-LFB3644
	.long L$set$212
	.byte	0xe
	.byte	0x10
	.byte	0x86
	.byte	0x2
	.byte	0x4
	.set L$set$213,LCFI108-LCFI107
	.long L$set$213
	.byte	0xd
	.byte	0x6
	.byte	0x4
	.set L$set$214,LCFI109-LCFI108
	.long L$set$214
	.byte	0xc
	.byte	0x7
	.byte	0x8
	.align 3
LEFDE71:
LSFDE73:
	.set L$set$215,LEFDE73-LASFDE73
	.long L$set$215
LASFDE73:
	.long	LASFDE73-EH_frame1
	.quad	LFB3646-.
	.set L$set$216,LFE3646-LFB3646
	.quad L$set$216
	.byte	0x8
	.quad	0
	.byte	0x4
	.set L$set$217,LCFI110-LFB3646
	.long L$set$217
	.byte	0xe
	.byte	0x10
	.byte	0x86
	.byte	0x2
	.byte	0x4
	.set L$set$218,LCFI111-LCFI110
	.long L$set$218
	.byte	0xd
	.byte	0x6
	.byte	0x4
	.set L$set$219,LCFI112-LCFI111
	.long L$set$219
	.byte	0xc
	.byte	0x7
	.byte	0x8
	.align 3
LEFDE73:
LSFDE75:
	.set L$set$220,LEFDE75-LASFDE75
	.long L$set$220
LASFDE75:
	.long	LASFDE75-EH_frame1
	.quad	LFB3647-.
	.set L$set$221,LFE3647-LFB3647
	.quad L$set$221
	.byte	0x8
	.quad	0
	.byte	0x4
	.set L$set$222,LCFI113-LFB3647
	.long L$set$222
	.byte	0xe
	.byte	0x10
	.byte	0x86
	.byte	0x2
	.byte	0x4
	.set L$set$223,LCFI114-LCFI113
	.long L$set$223
	.byte	0xd
	.byte	0x6
	.byte	0x4
	.set L$set$224,LCFI115-LCFI114
	.long L$set$224
	.byte	0xc
	.byte	0x7
	.byte	0x8
	.align 3
LEFDE75:
LSFDE77:
	.set L$set$225,LEFDE77-LASFDE77
	.long L$set$225
LASFDE77:
	.long	LASFDE77-EH_frame1
	.quad	LFB3648-.
	.set L$set$226,LFE3648-LFB3648
	.quad L$set$226
	.byte	0x8
	.quad	0
	.byte	0x4
	.set L$set$227,LCFI116-LFB3648
	.long L$set$227
	.byte	0xe
	.byte	0x10
	.byte	0x86
	.byte	0x2
	.byte	0x4
	.set L$set$228,LCFI117-LCFI116
	.long L$set$228
	.byte	0xd
	.byte	0x6
	.byte	0x4
	.set L$set$229,LCFI118-LCFI117
	.long L$set$229
	.byte	0xc
	.byte	0x7
	.byte	0x8
	.align 3
LEFDE77:
LSFDE79:
	.set L$set$230,LEFDE79-LASFDE79
	.long L$set$230
LASFDE79:
	.long	LASFDE79-EH_frame1
	.quad	LFB3656-.
	.set L$set$231,LFE3656-LFB3656
	.quad L$set$231
	.byte	0x8
	.quad	0
	.byte	0x4
	.set L$set$232,LCFI119-LFB3656
	.long L$set$232
	.byte	0xe
	.byte	0x10
	.byte	0x86
	.byte	0x2
	.byte	0x4
	.set L$set$233,LCFI120-LCFI119
	.long L$set$233
	.byte	0xd
	.byte	0x6
	.byte	0x4
	.set L$set$234,LCFI121-LCFI120
	.long L$set$234
	.byte	0xc
	.byte	0x7
	.byte	0x8
	.align 3
LEFDE79:
LSFDE81:
	.set L$set$235,LEFDE81-LASFDE81
	.long L$set$235
LASFDE81:
	.long	LASFDE81-EH_frame1
	.quad	LFB3659-.
	.set L$set$236,LFE3659-LFB3659
	.quad L$set$236
	.byte	0x8
	.quad	0
	.byte	0x4
	.set L$set$237,LCFI122-LFB3659
	.long L$set$237
	.byte	0xe
	.byte	0x10
	.byte	0x86
	.byte	0x2
	.byte	0x4
	.set L$set$238,LCFI123-LCFI122
	.long L$set$238
	.byte	0xd
	.byte	0x6
	.byte	0x4
	.set L$set$239,LCFI124-LCFI123
	.long L$set$239
	.byte	0xc
	.byte	0x7
	.byte	0x8
	.align 3
LEFDE81:
LSFDE83:
	.set L$set$240,LEFDE83-LASFDE83
	.long L$set$240
LASFDE83:
	.long	LASFDE83-EH_frame1
	.quad	LFB3662-.
	.set L$set$241,LFE3662-LFB3662
	.quad L$set$241
	.byte	0x8
	.quad	0
	.byte	0x4
	.set L$set$242,LCFI125-LFB3662
	.long L$set$242
	.byte	0xe
	.byte	0x10
	.byte	0x86
	.byte	0x2
	.byte	0x4
	.set L$set$243,LCFI126-LCFI125
	.long L$set$243
	.byte	0xd
	.byte	0x6
	.byte	0x4
	.set L$set$244,LCFI127-LCFI126
	.long L$set$244
	.byte	0xc
	.byte	0x7
	.byte	0x8
	.align 3
LEFDE83:
LSFDE85:
	.set L$set$245,LEFDE85-LASFDE85
	.long L$set$245
LASFDE85:
	.long	LASFDE85-EH_frame1
	.quad	LFB3664-.
	.set L$set$246,LFE3664-LFB3664
	.quad L$set$246
	.byte	0x8
	.quad	0
	.byte	0x4
	.set L$set$247,LCFI128-LFB3664
	.long L$set$247
	.byte	0xe
	.byte	0x10
	.byte	0x86
	.byte	0x2
	.byte	0x4
	.set L$set$248,LCFI129-LCFI128
	.long L$set$248
	.byte	0xd
	.byte	0x6
	.byte	0x4
	.set L$set$249,LCFI130-LCFI129
	.long L$set$249
	.byte	0xc
	.byte	0x7
	.byte	0x8
	.align 3
LEFDE85:
LSFDE87:
	.set L$set$250,LEFDE87-LASFDE87
	.long L$set$250
LASFDE87:
	.long	LASFDE87-EH_frame1
	.quad	LFB3665-.
	.set L$set$251,LFE3665-LFB3665
	.quad L$set$251
	.byte	0x8
	.quad	0
	.byte	0x4
	.set L$set$252,LCFI131-LFB3665
	.long L$set$252
	.byte	0xe
	.byte	0x10
	.byte	0x86
	.byte	0x2
	.byte	0x4
	.set L$set$253,LCFI132-LCFI131
	.long L$set$253
	.byte	0xd
	.byte	0x6
	.byte	0x4
	.set L$set$254,LCFI133-LCFI132
	.long L$set$254
	.byte	0xc
	.byte	0x7
	.byte	0x8
	.align 3
LEFDE87:
LSFDE89:
	.set L$set$255,LEFDE89-LASFDE89
	.long L$set$255
LASFDE89:
	.long	LASFDE89-EH_frame1
	.quad	LFB3666-.
	.set L$set$256,LFE3666-LFB3666
	.quad L$set$256
	.byte	0x8
	.quad	0
	.byte	0x4
	.set L$set$257,LCFI134-LFB3666
	.long L$set$257
	.byte	0xe
	.byte	0x10
	.byte	0x86
	.byte	0x2
	.byte	0x4
	.set L$set$258,LCFI135-LCFI134
	.long L$set$258
	.byte	0xd
	.byte	0x6
	.byte	0x4
	.set L$set$259,LCFI136-LCFI135
	.long L$set$259
	.byte	0xc
	.byte	0x7
	.byte	0x8
	.align 3
LEFDE89:
LSFDE91:
	.set L$set$260,LEFDE91-LASFDE91
	.long L$set$260
LASFDE91:
	.long	LASFDE91-EH_frame1
	.quad	LFB3668-.
	.set L$set$261,LFE3668-LFB3668
	.quad L$set$261
	.byte	0x8
	.quad	0
	.byte	0x4
	.set L$set$262,LCFI137-LFB3668
	.long L$set$262
	.byte	0xe
	.byte	0x10
	.byte	0x86
	.byte	0x2
	.byte	0x4
	.set L$set$263,LCFI138-LCFI137
	.long L$set$263
	.byte	0xd
	.byte	0x6
	.byte	0x4
	.set L$set$264,LCFI139-LCFI138
	.long L$set$264
	.byte	0xc
	.byte	0x7
	.byte	0x8
	.align 3
LEFDE91:
LSFDE93:
	.set L$set$265,LEFDE93-LASFDE93
	.long L$set$265
LASFDE93:
	.long	LASFDE93-EH_frame1
	.quad	LFB3671-.
	.set L$set$266,LFE3671-LFB3671
	.quad L$set$266
	.byte	0x8
	.quad	0
	.byte	0x4
	.set L$set$267,LCFI140-LFB3671
	.long L$set$267
	.byte	0xe
	.byte	0x10
	.byte	0x86
	.byte	0x2
	.byte	0x4
	.set L$set$268,LCFI141-LCFI140
	.long L$set$268
	.byte	0xd
	.byte	0x6
	.byte	0x4
	.set L$set$269,LCFI142-LCFI141
	.long L$set$269
	.byte	0xc
	.byte	0x7
	.byte	0x8
	.align 3
LEFDE93:
LSFDE95:
	.set L$set$270,LEFDE95-LASFDE95
	.long L$set$270
LASFDE95:
	.long	LASFDE95-EH_frame1
	.quad	LFB3673-.
	.set L$set$271,LFE3673-LFB3673
	.quad L$set$271
	.byte	0x8
	.quad	LLSDA3673-.
	.byte	0x4
	.set L$set$272,LCFI143-LFB3673
	.long L$set$272
	.byte	0xe
	.byte	0x10
	.byte	0x86
	.byte	0x2
	.byte	0x4
	.set L$set$273,LCFI144-LCFI143
	.long L$set$273
	.byte	0xd
	.byte	0x6
	.byte	0x4
	.set L$set$274,LCFI145-LCFI144
	.long L$set$274
	.byte	0xc
	.byte	0x7
	.byte	0x8
	.align 3
LEFDE95:
LSFDE97:
	.set L$set$275,LEFDE97-LASFDE97
	.long L$set$275
LASFDE97:
	.long	LASFDE97-EH_frame1
	.quad	LFB3674-.
	.set L$set$276,LFE3674-LFB3674
	.quad L$set$276
	.byte	0x8
	.quad	0
	.byte	0x4
	.set L$set$277,LCFI146-LFB3674
	.long L$set$277
	.byte	0xe
	.byte	0x10
	.byte	0x86
	.byte	0x2
	.byte	0x4
	.set L$set$278,LCFI147-LCFI146
	.long L$set$278
	.byte	0xd
	.byte	0x6
	.byte	0x4
	.set L$set$279,LCFI148-LCFI147
	.long L$set$279
	.byte	0xc
	.byte	0x7
	.byte	0x8
	.align 3
LEFDE97:
LSFDE99:
	.set L$set$280,LEFDE99-LASFDE99
	.long L$set$280
LASFDE99:
	.long	LASFDE99-EH_frame1
	.quad	LFB3675-.
	.set L$set$281,LFE3675-LFB3675
	.quad L$set$281
	.byte	0x8
	.quad	0
	.byte	0x4
	.set L$set$282,LCFI149-LFB3675
	.long L$set$282
	.byte	0xe
	.byte	0x10
	.byte	0x86
	.byte	0x2
	.byte	0x4
	.set L$set$283,LCFI150-LCFI149
	.long L$set$283
	.byte	0xd
	.byte	0x6
	.byte	0x4
	.set L$set$284,LCFI151-LCFI150
	.long L$set$284
	.byte	0xc
	.byte	0x7
	.byte	0x8
	.align 3
LEFDE99:
LSFDE101:
	.set L$set$285,LEFDE101-LASFDE101
	.long L$set$285
LASFDE101:
	.long	LASFDE101-EH_frame1
	.quad	LFB3689-.
	.set L$set$286,LFE3689-LFB3689
	.quad L$set$286
	.byte	0x8
	.quad	0
	.byte	0x4
	.set L$set$287,LCFI152-LFB3689
	.long L$set$287
	.byte	0xe
	.byte	0x10
	.byte	0x86
	.byte	0x2
	.byte	0x4
	.set L$set$288,LCFI153-LCFI152
	.long L$set$288
	.byte	0xd
	.byte	0x6
	.byte	0x4
	.set L$set$289,LCFI154-LCFI153
	.long L$set$289
	.byte	0xc
	.byte	0x7
	.byte	0x8
	.align 3
LEFDE101:
LSFDE103:
	.set L$set$290,LEFDE103-LASFDE103
	.long L$set$290
LASFDE103:
	.long	LASFDE103-EH_frame1
	.quad	LFB3729-.
	.set L$set$291,LFE3729-LFB3729
	.quad L$set$291
	.byte	0x8
	.quad	0
	.byte	0x4
	.set L$set$292,LCFI155-LFB3729
	.long L$set$292
	.byte	0xe
	.byte	0x10
	.byte	0x86
	.byte	0x2
	.byte	0x4
	.set L$set$293,LCFI156-LCFI155
	.long L$set$293
	.byte	0xd
	.byte	0x6
	.byte	0x4
	.set L$set$294,LCFI157-LCFI156
	.long L$set$294
	.byte	0xc
	.byte	0x7
	.byte	0x8
	.align 3
LEFDE103:
LSFDE105:
	.set L$set$295,LEFDE105-LASFDE105
	.long L$set$295
LASFDE105:
	.long	LASFDE105-EH_frame1
	.quad	LFB3730-.
	.set L$set$296,LFE3730-LFB3730
	.quad L$set$296
	.byte	0x8
	.quad	0
	.byte	0x4
	.set L$set$297,LCFI158-LFB3730
	.long L$set$297
	.byte	0xe
	.byte	0x10
	.byte	0x86
	.byte	0x2
	.byte	0x4
	.set L$set$298,LCFI159-LCFI158
	.long L$set$298
	.byte	0xd
	.byte	0x6
	.byte	0x4
	.set L$set$299,LCFI160-LCFI159
	.long L$set$299
	.byte	0xc
	.byte	0x7
	.byte	0x8
	.align 3
LEFDE105:
LSFDE107:
	.set L$set$300,LEFDE107-LASFDE107
	.long L$set$300
LASFDE107:
	.long	LASFDE107-EH_frame1
	.quad	LFB3746-.
	.set L$set$301,LFE3746-LFB3746
	.quad L$set$301
	.byte	0x8
	.quad	0
	.byte	0x4
	.set L$set$302,LCFI161-LFB3746
	.long L$set$302
	.byte	0xe
	.byte	0x10
	.byte	0x86
	.byte	0x2
	.byte	0x4
	.set L$set$303,LCFI162-LCFI161
	.long L$set$303
	.byte	0xd
	.byte	0x6
	.byte	0x4
	.set L$set$304,LCFI163-LCFI162
	.long L$set$304
	.byte	0xc
	.byte	0x7
	.byte	0x8
	.align 3
LEFDE107:
LSFDE109:
	.set L$set$305,LEFDE109-LASFDE109
	.long L$set$305
LASFDE109:
	.long	LASFDE109-EH_frame1
	.quad	LFB3748-.
	.set L$set$306,LFE3748-LFB3748
	.quad L$set$306
	.byte	0x8
	.quad	0
	.byte	0x4
	.set L$set$307,LCFI164-LFB3748
	.long L$set$307
	.byte	0xe
	.byte	0x10
	.byte	0x86
	.byte	0x2
	.byte	0x4
	.set L$set$308,LCFI165-LCFI164
	.long L$set$308
	.byte	0xd
	.byte	0x6
	.byte	0x4
	.set L$set$309,LCFI166-LCFI165
	.long L$set$309
	.byte	0xc
	.byte	0x7
	.byte	0x8
	.align 3
LEFDE109:
LSFDE111:
	.set L$set$310,LEFDE111-LASFDE111
	.long L$set$310
LASFDE111:
	.long	LASFDE111-EH_frame1
	.quad	LFB3749-.
	.set L$set$311,LFE3749-LFB3749
	.quad L$set$311
	.byte	0x8
	.quad	0
	.byte	0x4
	.set L$set$312,LCFI167-LFB3749
	.long L$set$312
	.byte	0xe
	.byte	0x10
	.byte	0x86
	.byte	0x2
	.byte	0x4
	.set L$set$313,LCFI168-LCFI167
	.long L$set$313
	.byte	0xd
	.byte	0x6
	.byte	0x4
	.set L$set$314,LCFI169-LCFI168
	.long L$set$314
	.byte	0xc
	.byte	0x7
	.byte	0x8
	.align 3
LEFDE111:
LSFDE113:
	.set L$set$315,LEFDE113-LASFDE113
	.long L$set$315
LASFDE113:
	.long	LASFDE113-EH_frame1
	.quad	LFB3750-.
	.set L$set$316,LFE3750-LFB3750
	.quad L$set$316
	.byte	0x8
	.quad	0
	.byte	0x4
	.set L$set$317,LCFI170-LFB3750
	.long L$set$317
	.byte	0xe
	.byte	0x10
	.byte	0x86
	.byte	0x2
	.byte	0x4
	.set L$set$318,LCFI171-LCFI170
	.long L$set$318
	.byte	0xd
	.byte	0x6
	.byte	0x4
	.set L$set$319,LCFI172-LCFI171
	.long L$set$319
	.byte	0xc
	.byte	0x7
	.byte	0x8
	.align 3
LEFDE113:
LSFDE115:
	.set L$set$320,LEFDE115-LASFDE115
	.long L$set$320
LASFDE115:
	.long	LASFDE115-EH_frame1
	.quad	LFB3751-.
	.set L$set$321,LFE3751-LFB3751
	.quad L$set$321
	.byte	0x8
	.quad	0
	.byte	0x4
	.set L$set$322,LCFI173-LFB3751
	.long L$set$322
	.byte	0xe
	.byte	0x10
	.byte	0x86
	.byte	0x2
	.byte	0x4
	.set L$set$323,LCFI174-LCFI173
	.long L$set$323
	.byte	0xd
	.byte	0x6
	.byte	0x4
	.set L$set$324,LCFI175-LCFI174
	.long L$set$324
	.byte	0xc
	.byte	0x7
	.byte	0x8
	.align 3
LEFDE115:
LSFDE117:
	.set L$set$325,LEFDE117-LASFDE117
	.long L$set$325
LASFDE117:
	.long	LASFDE117-EH_frame1
	.quad	LFB3752-.
	.set L$set$326,LFE3752-LFB3752
	.quad L$set$326
	.byte	0x8
	.quad	0
	.byte	0x4
	.set L$set$327,LCFI176-LFB3752
	.long L$set$327
	.byte	0xe
	.byte	0x10
	.byte	0x86
	.byte	0x2
	.byte	0x4
	.set L$set$328,LCFI177-LCFI176
	.long L$set$328
	.byte	0xd
	.byte	0x6
	.byte	0x4
	.set L$set$329,LCFI178-LCFI177
	.long L$set$329
	.byte	0xc
	.byte	0x7
	.byte	0x8
	.align 3
LEFDE117:
LSFDE119:
	.set L$set$330,LEFDE119-LASFDE119
	.long L$set$330
LASFDE119:
	.long	LASFDE119-EH_frame1
	.quad	LFB3753-.
	.set L$set$331,LFE3753-LFB3753
	.quad L$set$331
	.byte	0x8
	.quad	0
	.byte	0x4
	.set L$set$332,LCFI179-LFB3753
	.long L$set$332
	.byte	0xe
	.byte	0x10
	.byte	0x86
	.byte	0x2
	.byte	0x4
	.set L$set$333,LCFI180-LCFI179
	.long L$set$333
	.byte	0xd
	.byte	0x6
	.byte	0x4
	.set L$set$334,LCFI181-LCFI180
	.long L$set$334
	.byte	0xc
	.byte	0x7
	.byte	0x8
	.align 3
LEFDE119:
LSFDE121:
	.set L$set$335,LEFDE121-LASFDE121
	.long L$set$335
LASFDE121:
	.long	LASFDE121-EH_frame1
	.quad	LFB3760-.
	.set L$set$336,LFE3760-LFB3760
	.quad L$set$336
	.byte	0x8
	.quad	0
	.byte	0x4
	.set L$set$337,LCFI182-LFB3760
	.long L$set$337
	.byte	0xe
	.byte	0x10
	.byte	0x86
	.byte	0x2
	.byte	0x4
	.set L$set$338,LCFI183-LCFI182
	.long L$set$338
	.byte	0xd
	.byte	0x6
	.byte	0x4
	.set L$set$339,LCFI184-LCFI183
	.long L$set$339
	.byte	0xc
	.byte	0x7
	.byte	0x8
	.align 3
LEFDE121:
LSFDE123:
	.set L$set$340,LEFDE123-LASFDE123
	.long L$set$340
LASFDE123:
	.long	LASFDE123-EH_frame1
	.quad	LFB3761-.
	.set L$set$341,LFE3761-LFB3761
	.quad L$set$341
	.byte	0x8
	.quad	LLSDA3761-.
	.byte	0x4
	.set L$set$342,LCFI185-LFB3761
	.long L$set$342
	.byte	0xe
	.byte	0x10
	.byte	0x86
	.byte	0x2
	.byte	0x4
	.set L$set$343,LCFI186-LCFI185
	.long L$set$343
	.byte	0xd
	.byte	0x6
	.byte	0x4
	.set L$set$344,LCFI187-LCFI186
	.long L$set$344
	.byte	0xc
	.byte	0x7
	.byte	0x8
	.align 3
LEFDE123:
LSFDE125:
	.set L$set$345,LEFDE125-LASFDE125
	.long L$set$345
LASFDE125:
	.long	LASFDE125-EH_frame1
	.quad	LFB3796-.
	.set L$set$346,LFE3796-LFB3796
	.quad L$set$346
	.byte	0x8
	.quad	0
	.byte	0x4
	.set L$set$347,LCFI188-LFB3796
	.long L$set$347
	.byte	0xe
	.byte	0x10
	.byte	0x86
	.byte	0x2
	.byte	0x4
	.set L$set$348,LCFI189-LCFI188
	.long L$set$348
	.byte	0xd
	.byte	0x6
	.byte	0x4
	.set L$set$349,LCFI190-LCFI189
	.long L$set$349
	.byte	0xc
	.byte	0x7
	.byte	0x8
	.align 3
LEFDE125:
LSFDE127:
	.set L$set$350,LEFDE127-LASFDE127
	.long L$set$350
LASFDE127:
	.long	LASFDE127-EH_frame1
	.quad	LFB3797-.
	.set L$set$351,LFE3797-LFB3797
	.quad L$set$351
	.byte	0x8
	.quad	0
	.byte	0x4
	.set L$set$352,LCFI191-LFB3797
	.long L$set$352
	.byte	0xe
	.byte	0x10
	.byte	0x86
	.byte	0x2
	.byte	0x4
	.set L$set$353,LCFI192-LCFI191
	.long L$set$353
	.byte	0xd
	.byte	0x6
	.byte	0x4
	.set L$set$354,LCFI193-LCFI192
	.long L$set$354
	.byte	0xc
	.byte	0x7
	.byte	0x8
	.align 3
LEFDE127:
LSFDE129:
	.set L$set$355,LEFDE129-LASFDE129
	.long L$set$355
LASFDE129:
	.long	LASFDE129-EH_frame1
	.quad	LFB3805-.
	.set L$set$356,LFE3805-LFB3805
	.quad L$set$356
	.byte	0x8
	.quad	0
	.byte	0x4
	.set L$set$357,LCFI194-LFB3805
	.long L$set$357
	.byte	0xe
	.byte	0x10
	.byte	0x86
	.byte	0x2
	.byte	0x4
	.set L$set$358,LCFI195-LCFI194
	.long L$set$358
	.byte	0xd
	.byte	0x6
	.byte	0x4
	.set L$set$359,LCFI196-LCFI195
	.long L$set$359
	.byte	0xc
	.byte	0x7
	.byte	0x8
	.align 3
LEFDE129:
LSFDE131:
	.set L$set$360,LEFDE131-LASFDE131
	.long L$set$360
LASFDE131:
	.long	LASFDE131-EH_frame1
	.quad	LFB3806-.
	.set L$set$361,LFE3806-LFB3806
	.quad L$set$361
	.byte	0x8
	.quad	0
	.byte	0x4
	.set L$set$362,LCFI197-LFB3806
	.long L$set$362
	.byte	0xe
	.byte	0x10
	.byte	0x86
	.byte	0x2
	.byte	0x4
	.set L$set$363,LCFI198-LCFI197
	.long L$set$363
	.byte	0xd
	.byte	0x6
	.byte	0x4
	.set L$set$364,LCFI199-LCFI198
	.long L$set$364
	.byte	0xc
	.byte	0x7
	.byte	0x8
	.align 3
LEFDE131:
LSFDE133:
	.set L$set$365,LEFDE133-LASFDE133
	.long L$set$365
LASFDE133:
	.long	LASFDE133-EH_frame1
	.quad	LFB3807-.
	.set L$set$366,LFE3807-LFB3807
	.quad L$set$366
	.byte	0x8
	.quad	0
	.byte	0x4
	.set L$set$367,LCFI200-LFB3807
	.long L$set$367
	.byte	0xe
	.byte	0x10
	.byte	0x86
	.byte	0x2
	.byte	0x4
	.set L$set$368,LCFI201-LCFI200
	.long L$set$368
	.byte	0xd
	.byte	0x6
	.byte	0x4
	.set L$set$369,LCFI202-LCFI201
	.long L$set$369
	.byte	0xc
	.byte	0x7
	.byte	0x8
	.align 3
LEFDE133:
LSFDE135:
	.set L$set$370,LEFDE135-LASFDE135
	.long L$set$370
LASFDE135:
	.long	LASFDE135-EH_frame1
	.quad	LFB3808-.
	.set L$set$371,LFE3808-LFB3808
	.quad L$set$371
	.byte	0x8
	.quad	0
	.byte	0x4
	.set L$set$372,LCFI203-LFB3808
	.long L$set$372
	.byte	0xe
	.byte	0x10
	.byte	0x86
	.byte	0x2
	.byte	0x4
	.set L$set$373,LCFI204-LCFI203
	.long L$set$373
	.byte	0xd
	.byte	0x6
	.byte	0x4
	.set L$set$374,LCFI205-LCFI204
	.long L$set$374
	.byte	0x83
	.byte	0x3
	.byte	0x4
	.set L$set$375,LCFI206-LCFI205
	.long L$set$375
	.byte	0xc
	.byte	0x7
	.byte	0x8
	.align 3
LEFDE135:
LSFDE137:
	.set L$set$376,LEFDE137-LASFDE137
	.long L$set$376
LASFDE137:
	.long	LASFDE137-EH_frame1
	.quad	LFB3809-.
	.set L$set$377,LFE3809-LFB3809
	.quad L$set$377
	.byte	0x8
	.quad	LLSDA3809-.
	.byte	0x4
	.set L$set$378,LCFI207-LFB3809
	.long L$set$378
	.byte	0xe
	.byte	0x10
	.byte	0x86
	.byte	0x2
	.byte	0x4
	.set L$set$379,LCFI208-LCFI207
	.long L$set$379
	.byte	0xd
	.byte	0x6
	.byte	0x4
	.set L$set$380,LCFI209-LCFI208
	.long L$set$380
	.byte	0x83
	.byte	0x3
	.byte	0x4
	.set L$set$381,LCFI210-LCFI209
	.long L$set$381
	.byte	0xc
	.byte	0x7
	.byte	0x8
	.align 3
LEFDE137:
LSFDE139:
	.set L$set$382,LEFDE139-LASFDE139
	.long L$set$382
LASFDE139:
	.long	LASFDE139-EH_frame1
	.quad	LFB3810-.
	.set L$set$383,LFE3810-LFB3810
	.quad L$set$383
	.byte	0x8
	.quad	0
	.byte	0x4
	.set L$set$384,LCFI211-LFB3810
	.long L$set$384
	.byte	0xe
	.byte	0x10
	.byte	0x86
	.byte	0x2
	.byte	0x4
	.set L$set$385,LCFI212-LCFI211
	.long L$set$385
	.byte	0xd
	.byte	0x6
	.byte	0x4
	.set L$set$386,LCFI213-LCFI212
	.long L$set$386
	.byte	0xc
	.byte	0x7
	.byte	0x8
	.align 3
LEFDE139:
LSFDE141:
	.set L$set$387,LEFDE141-LASFDE141
	.long L$set$387
LASFDE141:
	.long	LASFDE141-EH_frame1
	.quad	LFB3811-.
	.set L$set$388,LFE3811-LFB3811
	.quad L$set$388
	.byte	0x8
	.quad	LLSDA3811-.
	.byte	0x4
	.set L$set$389,LCFI214-LFB3811
	.long L$set$389
	.byte	0xe
	.byte	0x10
	.byte	0x86
	.byte	0x2
	.byte	0x4
	.set L$set$390,LCFI215-LCFI214
	.long L$set$390
	.byte	0xd
	.byte	0x6
	.byte	0x4
	.set L$set$391,LCFI216-LCFI215
	.long L$set$391
	.byte	0x83
	.byte	0x3
	.byte	0x4
	.set L$set$392,LCFI217-LCFI216
	.long L$set$392
	.byte	0xc
	.byte	0x7
	.byte	0x8
	.align 3
LEFDE141:
LSFDE143:
	.set L$set$393,LEFDE143-LASFDE143
	.long L$set$393
LASFDE143:
	.long	LASFDE143-EH_frame1
	.quad	LFB3812-.
	.set L$set$394,LFE3812-LFB3812
	.quad L$set$394
	.byte	0x8
	.quad	0
	.byte	0x4
	.set L$set$395,LCFI218-LFB3812
	.long L$set$395
	.byte	0xe
	.byte	0x10
	.byte	0x86
	.byte	0x2
	.byte	0x4
	.set L$set$396,LCFI219-LCFI218
	.long L$set$396
	.byte	0xd
	.byte	0x6
	.byte	0x4
	.set L$set$397,LCFI220-LCFI219
	.long L$set$397
	.byte	0xc
	.byte	0x7
	.byte	0x8
	.align 3
LEFDE143:
LSFDE145:
	.set L$set$398,LEFDE145-LASFDE145
	.long L$set$398
LASFDE145:
	.long	LASFDE145-EH_frame1
	.quad	LFB3850-.
	.set L$set$399,LFE3850-LFB3850
	.quad L$set$399
	.byte	0x8
	.quad	0
	.byte	0x4
	.set L$set$400,LCFI221-LFB3850
	.long L$set$400
	.byte	0xe
	.byte	0x10
	.byte	0x86
	.byte	0x2
	.byte	0x4
	.set L$set$401,LCFI222-LCFI221
	.long L$set$401
	.byte	0xd
	.byte	0x6
	.byte	0x4
	.set L$set$402,LCFI223-LCFI222
	.long L$set$402
	.byte	0xc
	.byte	0x7
	.byte	0x8
	.align 3
LEFDE145:
LSFDE147:
	.set L$set$403,LEFDE147-LASFDE147
	.long L$set$403
LASFDE147:
	.long	LASFDE147-EH_frame1
	.quad	LFB3854-.
	.set L$set$404,LFE3854-LFB3854
	.quad L$set$404
	.byte	0x8
	.quad	0
	.byte	0x4
	.set L$set$405,LCFI224-LFB3854
	.long L$set$405
	.byte	0xe
	.byte	0x10
	.byte	0x86
	.byte	0x2
	.byte	0x4
	.set L$set$406,LCFI225-LCFI224
	.long L$set$406
	.byte	0xd
	.byte	0x6
	.byte	0x4
	.set L$set$407,LCFI226-LCFI225
	.long L$set$407
	.byte	0xc
	.byte	0x7
	.byte	0x8
	.align 3
LEFDE147:
LSFDE149:
	.set L$set$408,LEFDE149-LASFDE149
	.long L$set$408
LASFDE149:
	.long	LASFDE149-EH_frame1
	.quad	LFB3851-.
	.set L$set$409,LFE3851-LFB3851
	.quad L$set$409
	.byte	0x8
	.quad	0
	.byte	0x4
	.set L$set$410,LCFI227-LFB3851
	.long L$set$410
	.byte	0xe
	.byte	0x10
	.byte	0x86
	.byte	0x2
	.byte	0x4
	.set L$set$411,LCFI228-LCFI227
	.long L$set$411
	.byte	0xd
	.byte	0x6
	.byte	0x4
	.set L$set$412,LCFI229-LCFI228
	.long L$set$412
	.byte	0xc
	.byte	0x7
	.byte	0x8
	.align 3
LEFDE149:
LSFDE151:
	.set L$set$413,LEFDE151-LASFDE151
	.long L$set$413
LASFDE151:
	.long	LASFDE151-EH_frame1
	.quad	LFB3855-.
	.set L$set$414,LFE3855-LFB3855
	.quad L$set$414
	.byte	0x8
	.quad	0
	.byte	0x4
	.set L$set$415,LCFI230-LFB3855
	.long L$set$415
	.byte	0xe
	.byte	0x10
	.byte	0x86
	.byte	0x2
	.byte	0x4
	.set L$set$416,LCFI231-LCFI230
	.long L$set$416
	.byte	0xd
	.byte	0x6
	.byte	0x4
	.set L$set$417,LCFI232-LCFI231
	.long L$set$417
	.byte	0xc
	.byte	0x7
	.byte	0x8
	.align 3
LEFDE151:
LSFDE153:
	.set L$set$418,LEFDE153-LASFDE153
	.long L$set$418
LASFDE153:
	.long	LASFDE153-EH_frame1
	.quad	LFB3856-.
	.set L$set$419,LFE3856-LFB3856
	.quad L$set$419
	.byte	0x8
	.quad	0
	.byte	0x4
	.set L$set$420,LCFI233-LFB3856
	.long L$set$420
	.byte	0xe
	.byte	0x10
	.byte	0x86
	.byte	0x2
	.byte	0x4
	.set L$set$421,LCFI234-LCFI233
	.long L$set$421
	.byte	0xd
	.byte	0x6
	.byte	0x4
	.set L$set$422,LCFI235-LCFI234
	.long L$set$422
	.byte	0xc
	.byte	0x7
	.byte	0x8
	.align 3
LEFDE153:
LSFDE155:
	.set L$set$423,LEFDE155-LASFDE155
	.long L$set$423
LASFDE155:
	.long	LASFDE155-EH_frame1
	.quad	LFB3857-.
	.set L$set$424,LFE3857-LFB3857
	.quad L$set$424
	.byte	0x8
	.quad	0
	.byte	0x4
	.set L$set$425,LCFI236-LFB3857
	.long L$set$425
	.byte	0xe
	.byte	0x10
	.byte	0x86
	.byte	0x2
	.byte	0x4
	.set L$set$426,LCFI237-LCFI236
	.long L$set$426
	.byte	0xd
	.byte	0x6
	.byte	0x4
	.set L$set$427,LCFI238-LCFI237
	.long L$set$427
	.byte	0xc
	.byte	0x7
	.byte	0x8
	.align 3
LEFDE155:
LSFDE157:
	.set L$set$428,LEFDE157-LASFDE157
	.long L$set$428
LASFDE157:
	.long	LASFDE157-EH_frame1
	.quad	LFB3858-.
	.set L$set$429,LFE3858-LFB3858
	.quad L$set$429
	.byte	0x8
	.quad	0
	.byte	0x4
	.set L$set$430,LCFI239-LFB3858
	.long L$set$430
	.byte	0xe
	.byte	0x10
	.byte	0x86
	.byte	0x2
	.byte	0x4
	.set L$set$431,LCFI240-LCFI239
	.long L$set$431
	.byte	0xd
	.byte	0x6
	.byte	0x4
	.set L$set$432,LCFI241-LCFI240
	.long L$set$432
	.byte	0xc
	.byte	0x7
	.byte	0x8
	.align 3
LEFDE157:
LSFDE159:
	.set L$set$433,LEFDE159-LASFDE159
	.long L$set$433
LASFDE159:
	.long	LASFDE159-EH_frame1
	.quad	LFB3859-.
	.set L$set$434,LFE3859-LFB3859
	.quad L$set$434
	.byte	0x8
	.quad	0
	.byte	0x4
	.set L$set$435,LCFI242-LFB3859
	.long L$set$435
	.byte	0xe
	.byte	0x10
	.byte	0x86
	.byte	0x2
	.byte	0x4
	.set L$set$436,LCFI243-LCFI242
	.long L$set$436
	.byte	0xd
	.byte	0x6
	.byte	0x4
	.set L$set$437,LCFI244-LCFI243
	.long L$set$437
	.byte	0xc
	.byte	0x7
	.byte	0x8
	.align 3
LEFDE159:
LSFDE161:
	.set L$set$438,LEFDE161-LASFDE161
	.long L$set$438
LASFDE161:
	.long	LASFDE161-EH_frame1
	.quad	LFB3862-.
	.set L$set$439,LFE3862-LFB3862
	.quad L$set$439
	.byte	0x8
	.quad	0
	.byte	0x4
	.set L$set$440,LCFI245-LFB3862
	.long L$set$440
	.byte	0xe
	.byte	0x10
	.byte	0x86
	.byte	0x2
	.byte	0x4
	.set L$set$441,LCFI246-LCFI245
	.long L$set$441
	.byte	0xd
	.byte	0x6
	.byte	0x4
	.set L$set$442,LCFI247-LCFI246
	.long L$set$442
	.byte	0xc
	.byte	0x7
	.byte	0x8
	.align 3
LEFDE161:
LSFDE163:
	.set L$set$443,LEFDE163-LASFDE163
	.long L$set$443
LASFDE163:
	.long	LASFDE163-EH_frame1
	.quad	LFB3865-.
	.set L$set$444,LFE3865-LFB3865
	.quad L$set$444
	.byte	0x8
	.quad	0
	.byte	0x4
	.set L$set$445,LCFI248-LFB3865
	.long L$set$445
	.byte	0xe
	.byte	0x10
	.byte	0x86
	.byte	0x2
	.byte	0x4
	.set L$set$446,LCFI249-LCFI248
	.long L$set$446
	.byte	0xd
	.byte	0x6
	.byte	0x4
	.set L$set$447,LCFI250-LCFI249
	.long L$set$447
	.byte	0xc
	.byte	0x7
	.byte	0x8
	.align 3
LEFDE163:
LSFDE165:
	.set L$set$448,LEFDE165-LASFDE165
	.long L$set$448
LASFDE165:
	.long	LASFDE165-EH_frame1
	.quad	LFB3866-.
	.set L$set$449,LFE3866-LFB3866
	.quad L$set$449
	.byte	0x8
	.quad	0
	.byte	0x4
	.set L$set$450,LCFI251-LFB3866
	.long L$set$450
	.byte	0xe
	.byte	0x10
	.byte	0x86
	.byte	0x2
	.byte	0x4
	.set L$set$451,LCFI252-LCFI251
	.long L$set$451
	.byte	0xd
	.byte	0x6
	.byte	0x4
	.set L$set$452,LCFI253-LCFI252
	.long L$set$452
	.byte	0xc
	.byte	0x7
	.byte	0x8
	.align 3
LEFDE165:
LSFDE167:
	.set L$set$453,LEFDE167-LASFDE167
	.long L$set$453
LASFDE167:
	.long	LASFDE167-EH_frame1
	.quad	LFB3867-.
	.set L$set$454,LFE3867-LFB3867
	.quad L$set$454
	.byte	0x8
	.quad	0
	.byte	0x4
	.set L$set$455,LCFI254-LFB3867
	.long L$set$455
	.byte	0xe
	.byte	0x10
	.byte	0x86
	.byte	0x2
	.byte	0x4
	.set L$set$456,LCFI255-LCFI254
	.long L$set$456
	.byte	0xd
	.byte	0x6
	.byte	0x4
	.set L$set$457,LCFI256-LCFI255
	.long L$set$457
	.byte	0xc
	.byte	0x7
	.byte	0x8
	.align 3
LEFDE167:
LSFDE169:
	.set L$set$458,LEFDE169-LASFDE169
	.long L$set$458
LASFDE169:
	.long	LASFDE169-EH_frame1
	.quad	LFB3868-.
	.set L$set$459,LFE3868-LFB3868
	.quad L$set$459
	.byte	0x8
	.quad	0
	.byte	0x4
	.set L$set$460,LCFI257-LFB3868
	.long L$set$460
	.byte	0xe
	.byte	0x10
	.byte	0x86
	.byte	0x2
	.byte	0x4
	.set L$set$461,LCFI258-LCFI257
	.long L$set$461
	.byte	0xd
	.byte	0x6
	.byte	0x4
	.set L$set$462,LCFI259-LCFI258
	.long L$set$462
	.byte	0xc
	.byte	0x7
	.byte	0x8
	.align 3
LEFDE169:
LSFDE171:
	.set L$set$463,LEFDE171-LASFDE171
	.long L$set$463
LASFDE171:
	.long	LASFDE171-EH_frame1
	.quad	LFB3901-.
	.set L$set$464,LFE3901-LFB3901
	.quad L$set$464
	.byte	0x8
	.quad	0
	.byte	0x4
	.set L$set$465,LCFI260-LFB3901
	.long L$set$465
	.byte	0xe
	.byte	0x10
	.byte	0x86
	.byte	0x2
	.byte	0x4
	.set L$set$466,LCFI261-LCFI260
	.long L$set$466
	.byte	0xd
	.byte	0x6
	.byte	0x4
	.set L$set$467,LCFI262-LCFI261
	.long L$set$467
	.byte	0xc
	.byte	0x7
	.byte	0x8
	.align 3
LEFDE171:
LSFDE173:
	.set L$set$468,LEFDE173-LASFDE173
	.long L$set$468
LASFDE173:
	.long	LASFDE173-EH_frame1
	.quad	LFB3902-.
	.set L$set$469,LFE3902-LFB3902
	.quad L$set$469
	.byte	0x8
	.quad	0
	.byte	0x4
	.set L$set$470,LCFI263-LFB3902
	.long L$set$470
	.byte	0xe
	.byte	0x10
	.byte	0x86
	.byte	0x2
	.byte	0x4
	.set L$set$471,LCFI264-LCFI263
	.long L$set$471
	.byte	0xd
	.byte	0x6
	.byte	0x4
	.set L$set$472,LCFI265-LCFI264
	.long L$set$472
	.byte	0xc
	.byte	0x7
	.byte	0x8
	.align 3
LEFDE173:
LSFDE175:
	.set L$set$473,LEFDE175-LASFDE175
	.long L$set$473
LASFDE175:
	.long	LASFDE175-EH_frame1
	.quad	LFB3903-.
	.set L$set$474,LFE3903-LFB3903
	.quad L$set$474
	.byte	0x8
	.quad	0
	.byte	0x4
	.set L$set$475,LCFI266-LFB3903
	.long L$set$475
	.byte	0xe
	.byte	0x10
	.byte	0x86
	.byte	0x2
	.byte	0x4
	.set L$set$476,LCFI267-LCFI266
	.long L$set$476
	.byte	0xd
	.byte	0x6
	.byte	0x4
	.set L$set$477,LCFI268-LCFI267
	.long L$set$477
	.byte	0xc
	.byte	0x7
	.byte	0x8
	.align 3
LEFDE175:
LSFDE177:
	.set L$set$478,LEFDE177-LASFDE177
	.long L$set$478
LASFDE177:
	.long	LASFDE177-EH_frame1
	.quad	LFB3904-.
	.set L$set$479,LFE3904-LFB3904
	.quad L$set$479
	.byte	0x8
	.quad	0
	.byte	0x4
	.set L$set$480,LCFI269-LFB3904
	.long L$set$480
	.byte	0xe
	.byte	0x10
	.byte	0x86
	.byte	0x2
	.byte	0x4
	.set L$set$481,LCFI270-LCFI269
	.long L$set$481
	.byte	0xd
	.byte	0x6
	.byte	0x4
	.set L$set$482,LCFI271-LCFI270
	.long L$set$482
	.byte	0xc
	.byte	0x7
	.byte	0x8
	.align 3
LEFDE177:
LSFDE179:
	.set L$set$483,LEFDE179-LASFDE179
	.long L$set$483
LASFDE179:
	.long	LASFDE179-EH_frame1
	.quad	LFB3905-.
	.set L$set$484,LFE3905-LFB3905
	.quad L$set$484
	.byte	0x8
	.quad	0
	.byte	0x4
	.set L$set$485,LCFI272-LFB3905
	.long L$set$485
	.byte	0xe
	.byte	0x10
	.byte	0x86
	.byte	0x2
	.byte	0x4
	.set L$set$486,LCFI273-LCFI272
	.long L$set$486
	.byte	0xd
	.byte	0x6
	.byte	0x4
	.set L$set$487,LCFI274-LCFI273
	.long L$set$487
	.byte	0xc
	.byte	0x7
	.byte	0x8
	.align 3
LEFDE179:
LSFDE181:
	.set L$set$488,LEFDE181-LASFDE181
	.long L$set$488
LASFDE181:
	.long	LASFDE181-EH_frame1
	.quad	LFB3906-.
	.set L$set$489,LFE3906-LFB3906
	.quad L$set$489
	.byte	0x8
	.quad	0
	.byte	0x4
	.set L$set$490,LCFI275-LFB3906
	.long L$set$490
	.byte	0xe
	.byte	0x10
	.byte	0x86
	.byte	0x2
	.byte	0x4
	.set L$set$491,LCFI276-LCFI275
	.long L$set$491
	.byte	0xd
	.byte	0x6
	.byte	0x4
	.set L$set$492,LCFI277-LCFI276
	.long L$set$492
	.byte	0xc
	.byte	0x7
	.byte	0x8
	.align 3
LEFDE181:
LSFDE183:
	.set L$set$493,LEFDE183-LASFDE183
	.long L$set$493
LASFDE183:
	.long	LASFDE183-EH_frame1
	.quad	LFB3908-.
	.set L$set$494,LFE3908-LFB3908
	.quad L$set$494
	.byte	0x8
	.quad	0
	.byte	0x4
	.set L$set$495,LCFI278-LFB3908
	.long L$set$495
	.byte	0xe
	.byte	0x10
	.byte	0x86
	.byte	0x2
	.byte	0x4
	.set L$set$496,LCFI279-LCFI278
	.long L$set$496
	.byte	0xd
	.byte	0x6
	.byte	0x4
	.set L$set$497,LCFI280-LCFI279
	.long L$set$497
	.byte	0xc
	.byte	0x7
	.byte	0x8
	.align 3
LEFDE183:
LSFDE185:
	.set L$set$498,LEFDE185-LASFDE185
	.long L$set$498
LASFDE185:
	.long	LASFDE185-EH_frame1
	.quad	LFB3911-.
	.set L$set$499,LFE3911-LFB3911
	.quad L$set$499
	.byte	0x8
	.quad	0
	.byte	0x4
	.set L$set$500,LCFI281-LFB3911
	.long L$set$500
	.byte	0xe
	.byte	0x10
	.byte	0x86
	.byte	0x2
	.byte	0x4
	.set L$set$501,LCFI282-LCFI281
	.long L$set$501
	.byte	0xd
	.byte	0x6
	.byte	0x4
	.set L$set$502,LCFI283-LCFI282
	.long L$set$502
	.byte	0xc
	.byte	0x7
	.byte	0x8
	.align 3
LEFDE185:
LSFDE187:
	.set L$set$503,LEFDE187-LASFDE187
	.long L$set$503
LASFDE187:
	.long	LASFDE187-EH_frame1
	.quad	LFB3913-.
	.set L$set$504,LFE3913-LFB3913
	.quad L$set$504
	.byte	0x8
	.quad	0
	.byte	0x4
	.set L$set$505,LCFI284-LFB3913
	.long L$set$505
	.byte	0xe
	.byte	0x10
	.byte	0x86
	.byte	0x2
	.byte	0x4
	.set L$set$506,LCFI285-LCFI284
	.long L$set$506
	.byte	0xd
	.byte	0x6
	.byte	0x4
	.set L$set$507,LCFI286-LCFI285
	.long L$set$507
	.byte	0xc
	.byte	0x7
	.byte	0x8
	.align 3
LEFDE187:
LSFDE189:
	.set L$set$508,LEFDE189-LASFDE189
	.long L$set$508
LASFDE189:
	.long	LASFDE189-EH_frame1
	.quad	LFB3914-.
	.set L$set$509,LFE3914-LFB3914
	.quad L$set$509
	.byte	0x8
	.quad	0
	.byte	0x4
	.set L$set$510,LCFI287-LFB3914
	.long L$set$510
	.byte	0xe
	.byte	0x10
	.byte	0x86
	.byte	0x2
	.byte	0x4
	.set L$set$511,LCFI288-LCFI287
	.long L$set$511
	.byte	0xd
	.byte	0x6
	.byte	0x4
	.set L$set$512,LCFI289-LCFI288
	.long L$set$512
	.byte	0xc
	.byte	0x7
	.byte	0x8
	.align 3
LEFDE189:
LSFDE191:
	.set L$set$513,LEFDE191-LASFDE191
	.long L$set$513
LASFDE191:
	.long	LASFDE191-EH_frame1
	.quad	LFB3931-.
	.set L$set$514,LFE3931-LFB3931
	.quad L$set$514
	.byte	0x8
	.quad	0
	.byte	0x4
	.set L$set$515,LCFI290-LFB3931
	.long L$set$515
	.byte	0xe
	.byte	0x10
	.byte	0x86
	.byte	0x2
	.byte	0x4
	.set L$set$516,LCFI291-LCFI290
	.long L$set$516
	.byte	0xd
	.byte	0x6
	.byte	0x4
	.set L$set$517,LCFI292-LCFI291
	.long L$set$517
	.byte	0xc
	.byte	0x7
	.byte	0x8
	.align 3
LEFDE191:
LSFDE193:
	.set L$set$518,LEFDE193-LASFDE193
	.long L$set$518
LASFDE193:
	.long	LASFDE193-EH_frame1
	.quad	LFB3932-.
	.set L$set$519,LFE3932-LFB3932
	.quad L$set$519
	.byte	0x8
	.quad	0
	.byte	0x4
	.set L$set$520,LCFI293-LFB3932
	.long L$set$520
	.byte	0xe
	.byte	0x10
	.byte	0x86
	.byte	0x2
	.byte	0x4
	.set L$set$521,LCFI294-LCFI293
	.long L$set$521
	.byte	0xd
	.byte	0x6
	.byte	0x4
	.set L$set$522,LCFI295-LCFI294
	.long L$set$522
	.byte	0xc
	.byte	0x7
	.byte	0x8
	.align 3
LEFDE193:
LSFDE195:
	.set L$set$523,LEFDE195-LASFDE195
	.long L$set$523
LASFDE195:
	.long	LASFDE195-EH_frame1
	.quad	LFB3933-.
	.set L$set$524,LFE3933-LFB3933
	.quad L$set$524
	.byte	0x8
	.quad	0
	.byte	0x4
	.set L$set$525,LCFI296-LFB3933
	.long L$set$525
	.byte	0xe
	.byte	0x10
	.byte	0x86
	.byte	0x2
	.byte	0x4
	.set L$set$526,LCFI297-LCFI296
	.long L$set$526
	.byte	0xd
	.byte	0x6
	.byte	0x4
	.set L$set$527,LCFI298-LCFI297
	.long L$set$527
	.byte	0xc
	.byte	0x7
	.byte	0x8
	.align 3
LEFDE195:
LSFDE197:
	.set L$set$528,LEFDE197-LASFDE197
	.long L$set$528
LASFDE197:
	.long	LASFDE197-EH_frame1
	.quad	LFB3934-.
	.set L$set$529,LFE3934-LFB3934
	.quad L$set$529
	.byte	0x8
	.quad	0
	.byte	0x4
	.set L$set$530,LCFI299-LFB3934
	.long L$set$530
	.byte	0xe
	.byte	0x10
	.byte	0x86
	.byte	0x2
	.byte	0x4
	.set L$set$531,LCFI300-LCFI299
	.long L$set$531
	.byte	0xd
	.byte	0x6
	.byte	0x4
	.set L$set$532,LCFI301-LCFI300
	.long L$set$532
	.byte	0xc
	.byte	0x7
	.byte	0x8
	.align 3
LEFDE197:
LSFDE199:
	.set L$set$533,LEFDE199-LASFDE199
	.long L$set$533
LASFDE199:
	.long	LASFDE199-EH_frame1
	.quad	LFB3935-.
	.set L$set$534,LFE3935-LFB3935
	.quad L$set$534
	.byte	0x8
	.quad	LLSDA3935-.
	.byte	0x4
	.set L$set$535,LCFI302-LFB3935
	.long L$set$535
	.byte	0xe
	.byte	0x10
	.byte	0x86
	.byte	0x2
	.byte	0x4
	.set L$set$536,LCFI303-LCFI302
	.long L$set$536
	.byte	0xd
	.byte	0x6
	.byte	0x4
	.set L$set$537,LCFI304-LCFI303
	.long L$set$537
	.byte	0x83
	.byte	0x3
	.byte	0x4
	.set L$set$538,LCFI305-LCFI304
	.long L$set$538
	.byte	0xc
	.byte	0x7
	.byte	0x8
	.align 3
LEFDE199:
LSFDE201:
	.set L$set$539,LEFDE201-LASFDE201
	.long L$set$539
LASFDE201:
	.long	LASFDE201-EH_frame1
	.quad	LFB3942-.
	.set L$set$540,LFE3942-LFB3942
	.quad L$set$540
	.byte	0x8
	.quad	0
	.byte	0x4
	.set L$set$541,LCFI306-LFB3942
	.long L$set$541
	.byte	0xe
	.byte	0x10
	.byte	0x86
	.byte	0x2
	.byte	0x4
	.set L$set$542,LCFI307-LCFI306
	.long L$set$542
	.byte	0xd
	.byte	0x6
	.byte	0x4
	.set L$set$543,LCFI308-LCFI307
	.long L$set$543
	.byte	0xc
	.byte	0x7
	.byte	0x8
	.align 3
LEFDE201:
LSFDE203:
	.set L$set$544,LEFDE203-LASFDE203
	.long L$set$544
LASFDE203:
	.long	LASFDE203-EH_frame1
	.quad	LFB3943-.
	.set L$set$545,LFE3943-LFB3943
	.quad L$set$545
	.byte	0x8
	.quad	0
	.byte	0x4
	.set L$set$546,LCFI309-LFB3943
	.long L$set$546
	.byte	0xe
	.byte	0x10
	.byte	0x86
	.byte	0x2
	.byte	0x4
	.set L$set$547,LCFI310-LCFI309
	.long L$set$547
	.byte	0xd
	.byte	0x6
	.byte	0x4
	.set L$set$548,LCFI311-LCFI310
	.long L$set$548
	.byte	0xc
	.byte	0x7
	.byte	0x8
	.align 3
LEFDE203:
LSFDE205:
	.set L$set$549,LEFDE205-LASFDE205
	.long L$set$549
LASFDE205:
	.long	LASFDE205-EH_frame1
	.quad	LFB3944-.
	.set L$set$550,LFE3944-LFB3944
	.quad L$set$550
	.byte	0x8
	.quad	0
	.byte	0x4
	.set L$set$551,LCFI312-LFB3944
	.long L$set$551
	.byte	0xe
	.byte	0x10
	.byte	0x86
	.byte	0x2
	.byte	0x4
	.set L$set$552,LCFI313-LCFI312
	.long L$set$552
	.byte	0xd
	.byte	0x6
	.byte	0x4
	.set L$set$553,LCFI314-LCFI313
	.long L$set$553
	.byte	0xc
	.byte	0x7
	.byte	0x8
	.align 3
LEFDE205:
LSFDE207:
	.set L$set$554,LEFDE207-LASFDE207
	.long L$set$554
LASFDE207:
	.long	LASFDE207-EH_frame1
	.quad	LFB3947-.
	.set L$set$555,LFE3947-LFB3947
	.quad L$set$555
	.byte	0x8
	.quad	0
	.byte	0x4
	.set L$set$556,LCFI315-LFB3947
	.long L$set$556
	.byte	0xe
	.byte	0x10
	.byte	0x86
	.byte	0x2
	.byte	0x4
	.set L$set$557,LCFI316-LCFI315
	.long L$set$557
	.byte	0xd
	.byte	0x6
	.byte	0x4
	.set L$set$558,LCFI317-LCFI316
	.long L$set$558
	.byte	0xc
	.byte	0x7
	.byte	0x8
	.align 3
LEFDE207:
LSFDE209:
	.set L$set$559,LEFDE209-LASFDE209
	.long L$set$559
LASFDE209:
	.long	LASFDE209-EH_frame1
	.quad	LFB3948-.
	.set L$set$560,LFE3948-LFB3948
	.quad L$set$560
	.byte	0x8
	.quad	0
	.byte	0x4
	.set L$set$561,LCFI318-LFB3948
	.long L$set$561
	.byte	0xe
	.byte	0x10
	.byte	0x86
	.byte	0x2
	.byte	0x4
	.set L$set$562,LCFI319-LCFI318
	.long L$set$562
	.byte	0xd
	.byte	0x6
	.byte	0x4
	.set L$set$563,LCFI320-LCFI319
	.long L$set$563
	.byte	0xc
	.byte	0x7
	.byte	0x8
	.align 3
LEFDE209:
LSFDE211:
	.set L$set$564,LEFDE211-LASFDE211
	.long L$set$564
LASFDE211:
	.long	LASFDE211-EH_frame1
	.quad	LFB3949-.
	.set L$set$565,LFE3949-LFB3949
	.quad L$set$565
	.byte	0x8
	.quad	0
	.byte	0x4
	.set L$set$566,LCFI321-LFB3949
	.long L$set$566
	.byte	0xe
	.byte	0x10
	.byte	0x86
	.byte	0x2
	.byte	0x4
	.set L$set$567,LCFI322-LCFI321
	.long L$set$567
	.byte	0xd
	.byte	0x6
	.byte	0x4
	.set L$set$568,LCFI323-LCFI322
	.long L$set$568
	.byte	0xc
	.byte	0x7
	.byte	0x8
	.align 3
LEFDE211:
LSFDE213:
	.set L$set$569,LEFDE213-LASFDE213
	.long L$set$569
LASFDE213:
	.long	LASFDE213-EH_frame1
	.quad	LFB3950-.
	.set L$set$570,LFE3950-LFB3950
	.quad L$set$570
	.byte	0x8
	.quad	0
	.byte	0x4
	.set L$set$571,LCFI324-LFB3950
	.long L$set$571
	.byte	0xe
	.byte	0x10
	.byte	0x86
	.byte	0x2
	.byte	0x4
	.set L$set$572,LCFI325-LCFI324
	.long L$set$572
	.byte	0xd
	.byte	0x6
	.byte	0x4
	.set L$set$573,LCFI326-LCFI325
	.long L$set$573
	.byte	0xc
	.byte	0x7
	.byte	0x8
	.align 3
LEFDE213:
	.ident	"GCC: (Homebrew GCC 9.3.0_1) 9.3.0"
	.mod_init_func
	.align 3
	.quad	__GLOBAL__sub_I_main.cpp
	.constructor
	.destructor
	.align 1
	.subsections_via_symbols
